
bufbomb:     file format elf32-i386


Disassembly of section .init:

08048880 <_init>:
 8048880:	55                   	push   %ebp
 8048881:	89 e5                	mov    %esp,%ebp
 8048883:	53                   	push   %ebx
 8048884:	83 ec 04             	sub    $0x4,%esp
 8048887:	e8 00 00 00 00       	call   804888c <_init+0xc>
 804888c:	5b                   	pop    %ebx
 804888d:	81 c3 5c 38 00 00    	add    $0x385c,%ebx
 8048893:	8b 93 fc ff ff ff    	mov    -0x4(%ebx),%edx
 8048899:	85 d2                	test   %edx,%edx
 804889b:	74 05                	je     80488a2 <_init+0x22>
 804889d:	e8 9e 00 00 00       	call   8048940 <__gmon_start__@plt>
 80488a2:	e8 d9 02 00 00       	call   8048b80 <frame_dummy>
 80488a7:	e8 e4 16 00 00       	call   8049f90 <__do_global_ctors_aux>
 80488ac:	58                   	pop    %eax
 80488ad:	5b                   	pop    %ebx
 80488ae:	c9                   	leave  
 80488af:	c3                   	ret    

Disassembly of section .plt:

080488b0 <__errno_location@plt-0x10>:
 80488b0:	ff 35 ec c0 04 08    	pushl  0x804c0ec
 80488b6:	ff 25 f0 c0 04 08    	jmp    *0x804c0f0
 80488bc:	00 00                	add    %al,(%eax)
	...

080488c0 <__errno_location@plt>:
 80488c0:	ff 25 f4 c0 04 08    	jmp    *0x804c0f4
 80488c6:	68 00 00 00 00       	push   $0x0
 80488cb:	e9 e0 ff ff ff       	jmp    80488b0 <_init+0x30>

080488d0 <sprintf@plt>:
 80488d0:	ff 25 f8 c0 04 08    	jmp    *0x804c0f8
 80488d6:	68 08 00 00 00       	push   $0x8
 80488db:	e9 d0 ff ff ff       	jmp    80488b0 <_init+0x30>

080488e0 <srand@plt>:
 80488e0:	ff 25 fc c0 04 08    	jmp    *0x804c0fc
 80488e6:	68 10 00 00 00       	push   $0x10
 80488eb:	e9 c0 ff ff ff       	jmp    80488b0 <_init+0x30>

080488f0 <connect@plt>:
 80488f0:	ff 25 00 c1 04 08    	jmp    *0x804c100
 80488f6:	68 18 00 00 00       	push   $0x18
 80488fb:	e9 b0 ff ff ff       	jmp    80488b0 <_init+0x30>

08048900 <mmap@plt>:
 8048900:	ff 25 04 c1 04 08    	jmp    *0x804c104
 8048906:	68 20 00 00 00       	push   $0x20
 804890b:	e9 a0 ff ff ff       	jmp    80488b0 <_init+0x30>

08048910 <getpid@plt>:
 8048910:	ff 25 08 c1 04 08    	jmp    *0x804c108
 8048916:	68 28 00 00 00       	push   $0x28
 804891b:	e9 90 ff ff ff       	jmp    80488b0 <_init+0x30>

08048920 <random@plt>:
 8048920:	ff 25 0c c1 04 08    	jmp    *0x804c10c
 8048926:	68 30 00 00 00       	push   $0x30
 804892b:	e9 80 ff ff ff       	jmp    80488b0 <_init+0x30>

08048930 <signal@plt>:
 8048930:	ff 25 10 c1 04 08    	jmp    *0x804c110
 8048936:	68 38 00 00 00       	push   $0x38
 804893b:	e9 70 ff ff ff       	jmp    80488b0 <_init+0x30>

08048940 <__gmon_start__@plt>:
 8048940:	ff 25 14 c1 04 08    	jmp    *0x804c114
 8048946:	68 40 00 00 00       	push   $0x40
 804894b:	e9 60 ff ff ff       	jmp    80488b0 <_init+0x30>

08048950 <__isoc99_sscanf@plt>:
 8048950:	ff 25 18 c1 04 08    	jmp    *0x804c118
 8048956:	68 48 00 00 00       	push   $0x48
 804895b:	e9 50 ff ff ff       	jmp    80488b0 <_init+0x30>

08048960 <calloc@plt>:
 8048960:	ff 25 1c c1 04 08    	jmp    *0x804c11c
 8048966:	68 50 00 00 00       	push   $0x50
 804896b:	e9 40 ff ff ff       	jmp    80488b0 <_init+0x30>

08048970 <write@plt>:
 8048970:	ff 25 20 c1 04 08    	jmp    *0x804c120
 8048976:	68 58 00 00 00       	push   $0x58
 804897b:	e9 30 ff ff ff       	jmp    80488b0 <_init+0x30>

08048980 <memset@plt>:
 8048980:	ff 25 24 c1 04 08    	jmp    *0x804c124
 8048986:	68 60 00 00 00       	push   $0x60
 804898b:	e9 20 ff ff ff       	jmp    80488b0 <_init+0x30>

08048990 <__libc_start_main@plt>:
 8048990:	ff 25 28 c1 04 08    	jmp    *0x804c128
 8048996:	68 68 00 00 00       	push   $0x68
 804899b:	e9 10 ff ff ff       	jmp    80488b0 <_init+0x30>

080489a0 <_IO_getc@plt>:
 80489a0:	ff 25 2c c1 04 08    	jmp    *0x804c12c
 80489a6:	68 70 00 00 00       	push   $0x70
 80489ab:	e9 00 ff ff ff       	jmp    80488b0 <_init+0x30>

080489b0 <read@plt>:
 80489b0:	ff 25 30 c1 04 08    	jmp    *0x804c130
 80489b6:	68 78 00 00 00       	push   $0x78
 80489bb:	e9 f0 fe ff ff       	jmp    80488b0 <_init+0x30>

080489c0 <socket@plt>:
 80489c0:	ff 25 34 c1 04 08    	jmp    *0x804c134
 80489c6:	68 80 00 00 00       	push   $0x80
 80489cb:	e9 e0 fe ff ff       	jmp    80488b0 <_init+0x30>

080489d0 <bcopy@plt>:
 80489d0:	ff 25 38 c1 04 08    	jmp    *0x804c138
 80489d6:	68 88 00 00 00       	push   $0x88
 80489db:	e9 d0 fe ff ff       	jmp    80488b0 <_init+0x30>

080489e0 <getopt@plt>:
 80489e0:	ff 25 3c c1 04 08    	jmp    *0x804c13c
 80489e6:	68 90 00 00 00       	push   $0x90
 80489eb:	e9 c0 fe ff ff       	jmp    80488b0 <_init+0x30>

080489f0 <memcpy@plt>:
 80489f0:	ff 25 40 c1 04 08    	jmp    *0x804c140
 80489f6:	68 98 00 00 00       	push   $0x98
 80489fb:	e9 b0 fe ff ff       	jmp    80488b0 <_init+0x30>

08048a00 <alarm@plt>:
 8048a00:	ff 25 44 c1 04 08    	jmp    *0x804c144
 8048a06:	68 a0 00 00 00       	push   $0xa0
 8048a0b:	e9 a0 fe ff ff       	jmp    80488b0 <_init+0x30>

08048a10 <strcpy@plt>:
 8048a10:	ff 25 48 c1 04 08    	jmp    *0x804c148
 8048a16:	68 a8 00 00 00       	push   $0xa8
 8048a1b:	e9 90 fe ff ff       	jmp    80488b0 <_init+0x30>

08048a20 <printf@plt>:
 8048a20:	ff 25 4c c1 04 08    	jmp    *0x804c14c
 8048a26:	68 b0 00 00 00       	push   $0xb0
 8048a2b:	e9 80 fe ff ff       	jmp    80488b0 <_init+0x30>

08048a30 <strcasecmp@plt>:
 8048a30:	ff 25 50 c1 04 08    	jmp    *0x804c150
 8048a36:	68 b8 00 00 00       	push   $0xb8
 8048a3b:	e9 70 fe ff ff       	jmp    80488b0 <_init+0x30>

08048a40 <srandom@plt>:
 8048a40:	ff 25 54 c1 04 08    	jmp    *0x804c154
 8048a46:	68 c0 00 00 00       	push   $0xc0
 8048a4b:	e9 60 fe ff ff       	jmp    80488b0 <_init+0x30>

08048a50 <close@plt>:
 8048a50:	ff 25 58 c1 04 08    	jmp    *0x804c158
 8048a56:	68 c8 00 00 00       	push   $0xc8
 8048a5b:	e9 50 fe ff ff       	jmp    80488b0 <_init+0x30>

08048a60 <fwrite@plt>:
 8048a60:	ff 25 5c c1 04 08    	jmp    *0x804c15c
 8048a66:	68 d0 00 00 00       	push   $0xd0
 8048a6b:	e9 40 fe ff ff       	jmp    80488b0 <_init+0x30>

08048a70 <fprintf@plt>:
 8048a70:	ff 25 60 c1 04 08    	jmp    *0x804c160
 8048a76:	68 d8 00 00 00       	push   $0xd8
 8048a7b:	e9 30 fe ff ff       	jmp    80488b0 <_init+0x30>

08048a80 <gethostname@plt>:
 8048a80:	ff 25 64 c1 04 08    	jmp    *0x804c164
 8048a86:	68 e0 00 00 00       	push   $0xe0
 8048a8b:	e9 20 fe ff ff       	jmp    80488b0 <_init+0x30>

08048a90 <puts@plt>:
 8048a90:	ff 25 68 c1 04 08    	jmp    *0x804c168
 8048a96:	68 e8 00 00 00       	push   $0xe8
 8048a9b:	e9 10 fe ff ff       	jmp    80488b0 <_init+0x30>

08048aa0 <rand@plt>:
 8048aa0:	ff 25 6c c1 04 08    	jmp    *0x804c16c
 8048aa6:	68 f0 00 00 00       	push   $0xf0
 8048aab:	e9 00 fe ff ff       	jmp    80488b0 <_init+0x30>

08048ab0 <munmap@plt>:
 8048ab0:	ff 25 70 c1 04 08    	jmp    *0x804c170
 8048ab6:	68 f8 00 00 00       	push   $0xf8
 8048abb:	e9 f0 fd ff ff       	jmp    80488b0 <_init+0x30>

08048ac0 <gethostbyname@plt>:
 8048ac0:	ff 25 74 c1 04 08    	jmp    *0x804c174
 8048ac6:	68 00 01 00 00       	push   $0x100
 8048acb:	e9 e0 fd ff ff       	jmp    80488b0 <_init+0x30>

08048ad0 <__strdup@plt>:
 8048ad0:	ff 25 78 c1 04 08    	jmp    *0x804c178
 8048ad6:	68 08 01 00 00       	push   $0x108
 8048adb:	e9 d0 fd ff ff       	jmp    80488b0 <_init+0x30>

08048ae0 <exit@plt>:
 8048ae0:	ff 25 7c c1 04 08    	jmp    *0x804c17c
 8048ae6:	68 10 01 00 00       	push   $0x110
 8048aeb:	e9 c0 fd ff ff       	jmp    80488b0 <_init+0x30>

Disassembly of section .text:

08048af0 <_start>:
 8048af0:	31 ed                	xor    %ebp,%ebp
 8048af2:	5e                   	pop    %esi
 8048af3:	89 e1                	mov    %esp,%ecx
 8048af5:	83 e4 f0             	and    $0xfffffff0,%esp
 8048af8:	50                   	push   %eax
 8048af9:	54                   	push   %esp
 8048afa:	52                   	push   %edx
 8048afb:	68 20 9f 04 08       	push   $0x8049f20
 8048b00:	68 30 9f 04 08       	push   $0x8049f30
 8048b05:	51                   	push   %ecx
 8048b06:	56                   	push   %esi
 8048b07:	68 7b 8f 04 08       	push   $0x8048f7b
 8048b0c:	e8 7f fe ff ff       	call   8048990 <__libc_start_main@plt>
 8048b11:	f4                   	hlt    
 8048b12:	90                   	nop
 8048b13:	90                   	nop
 8048b14:	90                   	nop
 8048b15:	90                   	nop
 8048b16:	90                   	nop
 8048b17:	90                   	nop
 8048b18:	90                   	nop
 8048b19:	90                   	nop
 8048b1a:	90                   	nop
 8048b1b:	90                   	nop
 8048b1c:	90                   	nop
 8048b1d:	90                   	nop
 8048b1e:	90                   	nop
 8048b1f:	90                   	nop

08048b20 <__do_global_dtors_aux>:
 8048b20:	55                   	push   %ebp
 8048b21:	89 e5                	mov    %esp,%ebp
 8048b23:	53                   	push   %ebx
 8048b24:	83 ec 04             	sub    $0x4,%esp
 8048b27:	80 3d e4 d1 04 08 00 	cmpb   $0x0,0x804d1e4
 8048b2e:	75 3f                	jne    8048b6f <__do_global_dtors_aux+0x4f>
 8048b30:	a1 e8 d1 04 08       	mov    0x804d1e8,%eax
 8048b35:	bb 0c c0 04 08       	mov    $0x804c00c,%ebx
 8048b3a:	81 eb 08 c0 04 08    	sub    $0x804c008,%ebx
 8048b40:	c1 fb 02             	sar    $0x2,%ebx
 8048b43:	83 eb 01             	sub    $0x1,%ebx
 8048b46:	39 d8                	cmp    %ebx,%eax
 8048b48:	73 1e                	jae    8048b68 <__do_global_dtors_aux+0x48>
 8048b4a:	8d b6 00 00 00 00    	lea    0x0(%esi),%esi
 8048b50:	83 c0 01             	add    $0x1,%eax
 8048b53:	a3 e8 d1 04 08       	mov    %eax,0x804d1e8
 8048b58:	ff 14 85 08 c0 04 08 	call   *0x804c008(,%eax,4)
 8048b5f:	a1 e8 d1 04 08       	mov    0x804d1e8,%eax
 8048b64:	39 d8                	cmp    %ebx,%eax
 8048b66:	72 e8                	jb     8048b50 <__do_global_dtors_aux+0x30>
 8048b68:	c6 05 e4 d1 04 08 01 	movb   $0x1,0x804d1e4
 8048b6f:	83 c4 04             	add    $0x4,%esp
 8048b72:	5b                   	pop    %ebx
 8048b73:	5d                   	pop    %ebp
 8048b74:	c3                   	ret    
 8048b75:	8d 74 26 00          	lea    0x0(%esi,%eiz,1),%esi
 8048b79:	8d bc 27 00 00 00 00 	lea    0x0(%edi,%eiz,1),%edi

08048b80 <frame_dummy>:
 8048b80:	55                   	push   %ebp
 8048b81:	89 e5                	mov    %esp,%ebp
 8048b83:	83 ec 18             	sub    $0x18,%esp
 8048b86:	a1 10 c0 04 08       	mov    0x804c010,%eax
 8048b8b:	85 c0                	test   %eax,%eax
 8048b8d:	74 12                	je     8048ba1 <frame_dummy+0x21>
 8048b8f:	b8 00 00 00 00       	mov    $0x0,%eax
 8048b94:	85 c0                	test   %eax,%eax
 8048b96:	74 09                	je     8048ba1 <frame_dummy+0x21>
 8048b98:	c7 04 24 10 c0 04 08 	movl   $0x804c010,(%esp)
 8048b9f:	ff d0                	call   *%eax
 8048ba1:	c9                   	leave  
 8048ba2:	c3                   	ret    
 8048ba3:	90                   	nop
 8048ba4:	90                   	nop
 8048ba5:	90                   	nop
 8048ba6:	90                   	nop
 8048ba7:	90                   	nop
 8048ba8:	90                   	nop
 8048ba9:	90                   	nop
 8048baa:	90                   	nop
 8048bab:	90                   	nop
 8048bac:	90                   	nop
 8048bad:	90                   	nop
 8048bae:	90                   	nop
 8048baf:	90                   	nop

08048bb0 <usage>:
 8048bb0:	55                   	push   %ebp
 8048bb1:	89 e5                	mov    %esp,%ebp
 8048bb3:	83 ec 18             	sub    $0x18,%esp
 8048bb6:	89 44 24 04          	mov    %eax,0x4(%esp)
 8048bba:	c7 04 24 e0 9f 04 08 	movl   $0x8049fe0,(%esp)
 8048bc1:	e8 5a fe ff ff       	call   8048a20 <printf@plt>
 8048bc6:	c7 04 24 fe 9f 04 08 	movl   $0x8049ffe,(%esp)
 8048bcd:	e8 be fe ff ff       	call   8048a90 <puts@plt>
 8048bd2:	c7 04 24 14 a0 04 08 	movl   $0x804a014,(%esp)
 8048bd9:	e8 b2 fe ff ff       	call   8048a90 <puts@plt>
 8048bde:	c7 04 24 1c a1 04 08 	movl   $0x804a11c,(%esp)
 8048be5:	e8 a6 fe ff ff       	call   8048a90 <puts@plt>
 8048bea:	c7 04 24 58 a1 04 08 	movl   $0x804a158,(%esp)
 8048bf1:	e8 9a fe ff ff       	call   8048a90 <puts@plt>
 8048bf6:	c7 04 24 00 00 00 00 	movl   $0x0,(%esp)
 8048bfd:	e8 de fe ff ff       	call   8048ae0 <exit@plt>

08048c02 <illegalhandler>:
 8048c02:	55                   	push   %ebp
 8048c03:	89 e5                	mov    %esp,%ebp
 8048c05:	83 ec 18             	sub    $0x18,%esp
 8048c08:	c7 04 24 80 a1 04 08 	movl   $0x804a180,(%esp)
 8048c0f:	e8 7c fe ff ff       	call   8048a90 <puts@plt>
 8048c14:	c7 04 24 2d a0 04 08 	movl   $0x804a02d,(%esp)
 8048c1b:	e8 70 fe ff ff       	call   8048a90 <puts@plt>
 8048c20:	c7 04 24 00 00 00 00 	movl   $0x0,(%esp)
 8048c27:	e8 b4 fe ff ff       	call   8048ae0 <exit@plt>

08048c2c <seghandler>:
 8048c2c:	55                   	push   %ebp
 8048c2d:	89 e5                	mov    %esp,%ebp
 8048c2f:	83 ec 18             	sub    $0x18,%esp
 8048c32:	c7 04 24 ac a1 04 08 	movl   $0x804a1ac,(%esp)
 8048c39:	e8 52 fe ff ff       	call   8048a90 <puts@plt>
 8048c3e:	c7 04 24 2d a0 04 08 	movl   $0x804a02d,(%esp)
 8048c45:	e8 46 fe ff ff       	call   8048a90 <puts@plt>
 8048c4a:	c7 04 24 00 00 00 00 	movl   $0x0,(%esp)
 8048c51:	e8 8a fe ff ff       	call   8048ae0 <exit@plt>

08048c56 <bushandler>:
 8048c56:	55                   	push   %ebp
 8048c57:	89 e5                	mov    %esp,%ebp
 8048c59:	83 ec 18             	sub    $0x18,%esp
 8048c5c:	c7 04 24 d4 a1 04 08 	movl   $0x804a1d4,(%esp)
 8048c63:	e8 28 fe ff ff       	call   8048a90 <puts@plt>
 8048c68:	c7 04 24 2d a0 04 08 	movl   $0x804a02d,(%esp)
 8048c6f:	e8 1c fe ff ff       	call   8048a90 <puts@plt>
 8048c74:	c7 04 24 00 00 00 00 	movl   $0x0,(%esp)
 8048c7b:	e8 60 fe ff ff       	call   8048ae0 <exit@plt>

08048c80 <uniqueval>:
 8048c80:	55                   	push   %ebp
 8048c81:	89 e5                	mov    %esp,%ebp
 8048c83:	83 ec 18             	sub    $0x18,%esp
 8048c86:	e8 85 fc ff ff       	call   8048910 <getpid@plt>
 8048c8b:	89 04 24             	mov    %eax,(%esp)
 8048c8e:	e8 ad fd ff ff       	call   8048a40 <srandom@plt>
 8048c93:	e8 88 fc ff ff       	call   8048920 <random@plt>
 8048c98:	c9                   	leave  
 8048c99:	c3                   	ret    

08048c9a <Gets>:
 8048c9a:	55                   	push   %ebp
 8048c9b:	89 e5                	mov    %esp,%ebp
 8048c9d:	57                   	push   %edi
 8048c9e:	56                   	push   %esi
 8048c9f:	53                   	push   %ebx
 8048ca0:	83 ec 2c             	sub    $0x2c,%esp
 8048ca3:	c7 05 04 d2 04 08 00 	movl   $0x0,0x804d204
 8048caa:	00 00 00 
 8048cad:	8b 5d 08             	mov    0x8(%ebp),%ebx
 8048cb0:	be fc a2 04 08       	mov    $0x804a2fc,%esi
 8048cb5:	eb 4d                	jmp    8048d04 <Gets+0x6a>
 8048cb7:	88 45 d8             	mov    %al,-0x28(%ebp)
 8048cba:	88 03                	mov    %al,(%ebx)
 8048cbc:	a1 04 d2 04 08       	mov    0x804d204,%eax
 8048cc1:	3d ff 03 00 00       	cmp    $0x3ff,%eax
 8048cc6:	7f 39                	jg     8048d01 <Gets+0x67>
 8048cc8:	8d 14 40             	lea    (%eax,%eax,2),%edx
 8048ccb:	0f b6 4d d8          	movzbl -0x28(%ebp),%ecx
 8048ccf:	c0 e9 04             	shr    $0x4,%cl
 8048cd2:	0f be f9             	movsbl %cl,%edi
 8048cd5:	0f b6 3c 3e          	movzbl (%esi,%edi,1),%edi
 8048cd9:	89 f9                	mov    %edi,%ecx
 8048cdb:	88 8a 20 d2 04 08    	mov    %cl,0x804d220(%edx)
 8048ce1:	0f b6 4d d8          	movzbl -0x28(%ebp),%ecx
 8048ce5:	83 e1 0f             	and    $0xf,%ecx
 8048ce8:	0f b6 0c 0e          	movzbl (%esi,%ecx,1),%ecx
 8048cec:	88 8a 21 d2 04 08    	mov    %cl,0x804d221(%edx)
 8048cf2:	c6 82 22 d2 04 08 20 	movb   $0x20,0x804d222(%edx)
 8048cf9:	83 c0 01             	add    $0x1,%eax
 8048cfc:	a3 04 d2 04 08       	mov    %eax,0x804d204
 8048d01:	83 c3 01             	add    $0x1,%ebx
 8048d04:	a1 f4 d1 04 08       	mov    0x804d1f4,%eax
 8048d09:	89 04 24             	mov    %eax,(%esp)
 8048d0c:	e8 8f fc ff ff       	call   80489a0 <_IO_getc@plt>
 8048d11:	83 f8 ff             	cmp    $0xffffffff,%eax
 8048d14:	74 05                	je     8048d1b <Gets+0x81>
 8048d16:	83 f8 0a             	cmp    $0xa,%eax
 8048d19:	75 9c                	jne    8048cb7 <Gets+0x1d>
 8048d1b:	c6 03 00             	movb   $0x0,(%ebx)
 8048d1e:	a1 04 d2 04 08       	mov    0x804d204,%eax
 8048d23:	c6 84 40 20 d2 04 08 	movb   $0x0,0x804d220(%eax,%eax,2)
 8048d2a:	00 
 8048d2b:	8b 45 08             	mov    0x8(%ebp),%eax
 8048d2e:	83 c4 2c             	add    $0x2c,%esp
 8048d31:	5b                   	pop    %ebx
 8048d32:	5e                   	pop    %esi
 8048d33:	5f                   	pop    %edi
 8048d34:	5d                   	pop    %ebp
 8048d35:	c3                   	ret    

08048d36 <getbufn>:
 8048d36:	55                   	push   %ebp
 8048d37:	89 e5                	mov    %esp,%ebp
 8048d39:	81 ec 18 02 00 00    	sub    $0x218,%esp
 8048d3f:	8d 85 f8 fd ff ff    	lea    -0x208(%ebp),%eax
 8048d45:	89 04 24             	mov    %eax,(%esp)
 8048d48:	e8 4d ff ff ff       	call   8048c9a <Gets>
 8048d4d:	b8 01 00 00 00       	mov    $0x1,%eax
 8048d52:	c9                   	leave  
 8048d53:	c3                   	ret    

08048d54 <getbuf>:
 8048d54:	55                   	push   %ebp
 8048d55:	89 e5                	mov    %esp,%ebp
 8048d57:	83 ec 38             	sub    $0x38,%esp
 8048d5a:	8d 45 d8             	lea    -0x28(%ebp),%eax
 8048d5d:	89 04 24             	mov    %eax,(%esp)
 8048d60:	e8 35 ff ff ff       	call   8048c9a <Gets>
 8048d65:	b8 01 00 00 00       	mov    $0x1,%eax
 8048d6a:	c9                   	leave  
 8048d6b:	c3                   	ret    

08048d6c <testn>:
 8048d6c:	55                   	push   %ebp
 8048d6d:	89 e5                	mov    %esp,%ebp
 8048d6f:	83 ec 28             	sub    $0x28,%esp
 8048d72:	c7 45 f4 ef be ad de 	movl   $0xdeadbeef,-0xc(%ebp)
 8048d79:	e8 b8 ff ff ff       	call   8048d36 <getbufn>
 8048d7e:	8b 55 f4             	mov    -0xc(%ebp),%edx
 8048d81:	81 fa ef be ad de    	cmp    $0xdeadbeef,%edx
 8048d87:	74 0e                	je     8048d97 <testn+0x2b>
 8048d89:	c7 04 24 f4 a1 04 08 	movl   $0x804a1f4,(%esp)
 8048d90:	e8 fb fc ff ff       	call   8048a90 <puts@plt>
 8048d95:	eb 36                	jmp    8048dcd <testn+0x61>
 8048d97:	3b 05 f8 d1 04 08    	cmp    0x804d1f8,%eax
 8048d9d:	75 1e                	jne    8048dbd <testn+0x51>
 8048d9f:	89 44 24 04          	mov    %eax,0x4(%esp)
 8048da3:	c7 04 24 20 a2 04 08 	movl   $0x804a220,(%esp)
 8048daa:	e8 71 fc ff ff       	call   8048a20 <printf@plt>
 8048daf:	c7 04 24 04 00 00 00 	movl   $0x4,(%esp)
 8048db6:	e8 75 04 00 00       	call   8049230 <validate>
 8048dbb:	eb 10                	jmp    8048dcd <testn+0x61>
 8048dbd:	89 44 24 04          	mov    %eax,0x4(%esp)
 8048dc1:	c7 04 24 43 a0 04 08 	movl   $0x804a043,(%esp)
 8048dc8:	e8 53 fc ff ff       	call   8048a20 <printf@plt>
 8048dcd:	c9                   	leave  
 8048dce:	c3                   	ret    

08048dcf <test>:
 8048dcf:	55                   	push   %ebp
 8048dd0:	89 e5                	mov    %esp,%ebp
 8048dd2:	53                   	push   %ebx
 8048dd3:	83 ec 24             	sub    $0x24,%esp
 8048dd6:	e8 a5 fe ff ff       	call   8048c80 <uniqueval>
 8048ddb:	89 45 f4             	mov    %eax,-0xc(%ebp)
 8048dde:	e8 71 ff ff ff       	call   8048d54 <getbuf>
 8048de3:	89 c3                	mov    %eax,%ebx
 8048de5:	e8 96 fe ff ff       	call   8048c80 <uniqueval>
 8048dea:	8b 55 f4             	mov    -0xc(%ebp),%edx
 8048ded:	39 d0                	cmp    %edx,%eax
 8048def:	74 0e                	je     8048dff <test+0x30>
 8048df1:	c7 04 24 f4 a1 04 08 	movl   $0x804a1f4,(%esp)
 8048df8:	e8 93 fc ff ff       	call   8048a90 <puts@plt>
 8048dfd:	eb 36                	jmp    8048e35 <test+0x66>
 8048dff:	3b 1d f8 d1 04 08    	cmp    0x804d1f8,%ebx
 8048e05:	75 1e                	jne    8048e25 <test+0x56>
 8048e07:	89 5c 24 04          	mov    %ebx,0x4(%esp)
 8048e0b:	c7 04 24 5f a0 04 08 	movl   $0x804a05f,(%esp)
 8048e12:	e8 09 fc ff ff       	call   8048a20 <printf@plt>
 8048e17:	c7 04 24 03 00 00 00 	movl   $0x3,(%esp)
 8048e1e:	e8 0d 04 00 00       	call   8049230 <validate>
 8048e23:	eb 10                	jmp    8048e35 <test+0x66>
 8048e25:	89 5c 24 04          	mov    %ebx,0x4(%esp)
 8048e29:	c7 04 24 7c a0 04 08 	movl   $0x804a07c,(%esp)
 8048e30:	e8 eb fb ff ff       	call   8048a20 <printf@plt>
 8048e35:	83 c4 24             	add    $0x24,%esp
 8048e38:	5b                   	pop    %ebx
 8048e39:	5d                   	pop    %ebp
 8048e3a:	c3                   	ret    

08048e3b <launch>:
 8048e3b:	55                   	push   %ebp
 8048e3c:	89 e5                	mov    %esp,%ebp
 8048e3e:	53                   	push   %ebx
 8048e3f:	83 ec 54             	sub    $0x54,%esp
 8048e42:	89 c3                	mov    %eax,%ebx
 8048e44:	8d 45 b8             	lea    -0x48(%ebp),%eax
 8048e47:	25 f0 3f 00 00       	and    $0x3ff0,%eax
 8048e4c:	8d 54 10 1e          	lea    0x1e(%eax,%edx,1),%edx
 8048e50:	83 e2 f0             	and    $0xfffffff0,%edx
 8048e53:	29 d4                	sub    %edx,%esp
 8048e55:	8d 54 24 1b          	lea    0x1b(%esp),%edx
 8048e59:	83 e2 f0             	and    $0xfffffff0,%edx
 8048e5c:	89 44 24 08          	mov    %eax,0x8(%esp)
 8048e60:	c7 44 24 04 f4 00 00 	movl   $0xf4,0x4(%esp)
 8048e67:	00 
 8048e68:	89 14 24             	mov    %edx,(%esp)
 8048e6b:	e8 10 fb ff ff       	call   8048980 <memset@plt>
 8048e70:	c7 04 24 97 a0 04 08 	movl   $0x804a097,(%esp)
 8048e77:	e8 a4 fb ff ff       	call   8048a20 <printf@plt>
 8048e7c:	85 db                	test   %ebx,%ebx
 8048e7e:	74 07                	je     8048e87 <launch+0x4c>
 8048e80:	e8 e7 fe ff ff       	call   8048d6c <testn>
 8048e85:	eb 06                	jmp    8048e8d <launch+0x52>
 8048e87:	90                   	nop
 8048e88:	e8 42 ff ff ff       	call   8048dcf <test>
 8048e8d:	83 3d fc d1 04 08 00 	cmpl   $0x0,0x804d1fc
 8048e94:	75 16                	jne    8048eac <launch+0x71>
 8048e96:	c7 04 24 2d a0 04 08 	movl   $0x804a02d,(%esp)
 8048e9d:	e8 ee fb ff ff       	call   8048a90 <puts@plt>
 8048ea2:	c7 05 fc d1 04 08 00 	movl   $0x0,0x804d1fc
 8048ea9:	00 00 00 
 8048eac:	8b 5d fc             	mov    -0x4(%ebp),%ebx
 8048eaf:	c9                   	leave  
 8048eb0:	c3                   	ret    

08048eb1 <launcher>:
 8048eb1:	55                   	push   %ebp
 8048eb2:	89 e5                	mov    %esp,%ebp
 8048eb4:	83 ec 28             	sub    $0x28,%esp
 8048eb7:	8b 45 08             	mov    0x8(%ebp),%eax
 8048eba:	a3 08 d2 04 08       	mov    %eax,0x804d208
 8048ebf:	8b 45 0c             	mov    0xc(%ebp),%eax
 8048ec2:	a3 0c d2 04 08       	mov    %eax,0x804d20c
 8048ec7:	c7 44 24 14 00 00 00 	movl   $0x0,0x14(%esp)
 8048ece:	00 
 8048ecf:	c7 44 24 10 00 00 00 	movl   $0x0,0x10(%esp)
 8048ed6:	00 
 8048ed7:	c7 44 24 0c 32 01 00 	movl   $0x132,0xc(%esp)
 8048ede:	00 
 8048edf:	c7 44 24 08 07 00 00 	movl   $0x7,0x8(%esp)
 8048ee6:	00 
 8048ee7:	c7 44 24 04 00 00 10 	movl   $0x100000,0x4(%esp)
 8048eee:	00 
 8048eef:	c7 04 24 00 60 58 55 	movl   $0x55586000,(%esp)
 8048ef6:	e8 05 fa ff ff       	call   8048900 <mmap@plt>
 8048efb:	3d 00 60 58 55       	cmp    $0x55586000,%eax
 8048f00:	74 31                	je     8048f33 <launcher+0x82>
 8048f02:	a1 c0 d1 04 08       	mov    0x804d1c0,%eax
 8048f07:	89 44 24 0c          	mov    %eax,0xc(%esp)
 8048f0b:	c7 44 24 08 47 00 00 	movl   $0x47,0x8(%esp)
 8048f12:	00 
 8048f13:	c7 44 24 04 01 00 00 	movl   $0x1,0x4(%esp)
 8048f1a:	00 
 8048f1b:	c7 04 24 40 a2 04 08 	movl   $0x804a240,(%esp)
 8048f22:	e8 39 fb ff ff       	call   8048a60 <fwrite@plt>
 8048f27:	c7 04 24 01 00 00 00 	movl   $0x1,(%esp)
 8048f2e:	e8 ad fb ff ff       	call   8048ae0 <exit@plt>
 8048f33:	c7 05 24 de 04 08 f8 	movl   $0x55685ff8,0x804de24
 8048f3a:	5f 68 55 
 8048f3d:	ba f8 5f 68 55       	mov    $0x55685ff8,%edx
 8048f42:	89 e0                	mov    %esp,%eax
 8048f44:	89 d4                	mov    %edx,%esp
 8048f46:	89 c2                	mov    %eax,%edx
 8048f48:	89 15 10 d2 04 08    	mov    %edx,0x804d210
 8048f4e:	8b 15 0c d2 04 08    	mov    0x804d20c,%edx
 8048f54:	a1 08 d2 04 08       	mov    0x804d208,%eax
 8048f59:	e8 dd fe ff ff       	call   8048e3b <launch>
 8048f5e:	a1 10 d2 04 08       	mov    0x804d210,%eax
 8048f63:	89 c4                	mov    %eax,%esp
 8048f65:	c7 44 24 04 00 00 10 	movl   $0x100000,0x4(%esp)
 8048f6c:	00 
 8048f6d:	c7 04 24 00 60 58 55 	movl   $0x55586000,(%esp)
 8048f74:	e8 37 fb ff ff       	call   8048ab0 <munmap@plt>
 8048f79:	c9                   	leave  
 8048f7a:	c3                   	ret    

08048f7b <main>:
 8048f7b:	55                   	push   %ebp
 8048f7c:	89 e5                	mov    %esp,%ebp
 8048f7e:	83 e4 f0             	and    $0xfffffff0,%esp
 8048f81:	57                   	push   %edi
 8048f82:	56                   	push   %esi
 8048f83:	53                   	push   %ebx
 8048f84:	83 ec 24             	sub    $0x24,%esp
 8048f87:	8b 75 08             	mov    0x8(%ebp),%esi
 8048f8a:	8b 5d 0c             	mov    0xc(%ebp),%ebx
 8048f8d:	c7 44 24 04 2c 8c 04 	movl   $0x8048c2c,0x4(%esp)
 8048f94:	08 
 8048f95:	c7 04 24 0b 00 00 00 	movl   $0xb,(%esp)
 8048f9c:	e8 8f f9 ff ff       	call   8048930 <signal@plt>
 8048fa1:	c7 44 24 04 56 8c 04 	movl   $0x8048c56,0x4(%esp)
 8048fa8:	08 
 8048fa9:	c7 04 24 07 00 00 00 	movl   $0x7,(%esp)
 8048fb0:	e8 7b f9 ff ff       	call   8048930 <signal@plt>
 8048fb5:	c7 44 24 04 02 8c 04 	movl   $0x8048c02,0x4(%esp)
 8048fbc:	08 
 8048fbd:	c7 04 24 04 00 00 00 	movl   $0x4,(%esp)
 8048fc4:	e8 67 f9 ff ff       	call   8048930 <signal@plt>
 8048fc9:	a1 c4 d1 04 08       	mov    0x804d1c4,%eax
 8048fce:	a3 f4 d1 04 08       	mov    %eax,0x804d1f4
 8048fd3:	bf 01 00 00 00       	mov    $0x1,%edi
 8048fd8:	c7 44 24 1c 00 00 00 	movl   $0x0,0x1c(%esp)
 8048fdf:	00 
 8048fe0:	eb 7d                	jmp    804905f <main+0xe4>
 8048fe2:	3c 6e                	cmp    $0x6e,%al
 8048fe4:	74 2c                	je     8049012 <main+0x97>
 8048fe6:	3c 6e                	cmp    $0x6e,%al
 8048fe8:	7f 10                	jg     8048ffa <main+0x7f>
 8048fea:	3c 68                	cmp    $0x68,%al
 8048fec:	8d 74 26 00          	lea    0x0(%esi,%eiz,1),%esi
 8048ff0:	75 66                	jne    8049058 <main+0xdd>
 8048ff2:	8d b6 00 00 00 00    	lea    0x0(%esi),%esi
 8048ff8:	eb 28                	jmp    8049022 <main+0xa7>
 8048ffa:	3c 73                	cmp    $0x73,%al
 8048ffc:	8d 74 26 00          	lea    0x0(%esi,%eiz,1),%esi
 8049000:	74 4a                	je     804904c <main+0xd1>
 8049002:	3c 75                	cmp    $0x75,%al
 8049004:	8d 74 26 00          	lea    0x0(%esi,%eiz,1),%esi
 8049008:	75 4e                	jne    8049058 <main+0xdd>
 804900a:	8d b6 00 00 00 00    	lea    0x0(%esi),%esi
 8049010:	eb 19                	jmp    804902b <main+0xb0>
 8049012:	bf 05 00 00 00       	mov    $0x5,%edi
 8049017:	c7 44 24 1c 01 00 00 	movl   $0x1,0x1c(%esp)
 804901e:	00 
 804901f:	90                   	nop
 8049020:	eb 3d                	jmp    804905f <main+0xe4>
 8049022:	8b 03                	mov    (%ebx),%eax
 8049024:	e8 87 fb ff ff       	call   8048bb0 <usage>
 8049029:	eb 34                	jmp    804905f <main+0xe4>
 804902b:	a1 e0 d1 04 08       	mov    0x804d1e0,%eax
 8049030:	89 04 24             	mov    %eax,(%esp)
 8049033:	e8 98 fa ff ff       	call   8048ad0 <__strdup@plt>
 8049038:	a3 ec d1 04 08       	mov    %eax,0x804d1ec
 804903d:	89 04 24             	mov    %eax,(%esp)
 8049040:	e8 9c 0e 00 00       	call   8049ee1 <gencookie>
 8049045:	a3 f8 d1 04 08       	mov    %eax,0x804d1f8
 804904a:	eb 13                	jmp    804905f <main+0xe4>
 804904c:	c7 05 f0 d1 04 08 01 	movl   $0x1,0x804d1f0
 8049053:	00 00 00 
 8049056:	eb 07                	jmp    804905f <main+0xe4>
 8049058:	8b 03                	mov    (%ebx),%eax
 804905a:	e8 51 fb ff ff       	call   8048bb0 <usage>
 804905f:	c7 44 24 08 a4 a0 04 	movl   $0x804a0a4,0x8(%esp)
 8049066:	08 
 8049067:	89 5c 24 04          	mov    %ebx,0x4(%esp)
 804906b:	89 34 24             	mov    %esi,(%esp)
 804906e:	e8 6d f9 ff ff       	call   80489e0 <getopt@plt>
 8049073:	3c ff                	cmp    $0xff,%al
 8049075:	0f 85 67 ff ff ff    	jne    8048fe2 <main+0x67>
 804907b:	83 3d ec d1 04 08 00 	cmpl   $0x0,0x804d1ec
 8049082:	75 19                	jne    804909d <main+0x122>
 8049084:	8b 03                	mov    (%ebx),%eax
 8049086:	89 44 24 04          	mov    %eax,0x4(%esp)
 804908a:	c7 04 24 88 a2 04 08 	movl   $0x804a288,(%esp)
 8049091:	e8 8a f9 ff ff       	call   8048a20 <printf@plt>
 8049096:	8b 03                	mov    (%ebx),%eax
 8049098:	e8 13 fb ff ff       	call   8048bb0 <usage>
 804909d:	e8 d1 02 00 00       	call   8049373 <initialize_bomb>
 80490a2:	a1 ec d1 04 08       	mov    0x804d1ec,%eax
 80490a7:	89 44 24 04          	mov    %eax,0x4(%esp)
 80490ab:	c7 04 24 aa a0 04 08 	movl   $0x804a0aa,(%esp)
 80490b2:	e8 69 f9 ff ff       	call   8048a20 <printf@plt>
 80490b7:	a1 f8 d1 04 08       	mov    0x804d1f8,%eax
 80490bc:	89 44 24 04          	mov    %eax,0x4(%esp)
 80490c0:	c7 04 24 b6 a0 04 08 	movl   $0x804a0b6,(%esp)
 80490c7:	e8 54 f9 ff ff       	call   8048a20 <printf@plt>
 80490cc:	a1 f8 d1 04 08       	mov    0x804d1f8,%eax
 80490d1:	89 04 24             	mov    %eax,(%esp)
 80490d4:	e8 67 f9 ff ff       	call   8048a40 <srandom@plt>
 80490d9:	e8 42 f8 ff ff       	call   8048920 <random@plt>
 80490de:	25 f0 0f 00 00       	and    $0xff0,%eax
 80490e3:	05 00 01 00 00       	add    $0x100,%eax
 80490e8:	89 44 24 18          	mov    %eax,0x18(%esp)
 80490ec:	c7 44 24 04 04 00 00 	movl   $0x4,0x4(%esp)
 80490f3:	00 
 80490f4:	89 3c 24             	mov    %edi,(%esp)
 80490f7:	e8 64 f8 ff ff       	call   8048960 <calloc@plt>
 80490fc:	89 c6                	mov    %eax,%esi
 80490fe:	c7 00 00 00 00 00    	movl   $0x0,(%eax)
 8049104:	83 ff 01             	cmp    $0x1,%edi
 8049107:	7e 20                	jle    8049129 <main+0x1ae>
 8049109:	bb 01 00 00 00       	mov    $0x1,%ebx
 804910e:	e8 0d f8 ff ff       	call   8048920 <random@plt>
 8049113:	25 f0 00 00 00       	and    $0xf0,%eax
 8049118:	ba 80 00 00 00       	mov    $0x80,%edx
 804911d:	29 c2                	sub    %eax,%edx
 804911f:	89 14 9e             	mov    %edx,(%esi,%ebx,4)
 8049122:	83 c3 01             	add    $0x1,%ebx
 8049125:	39 fb                	cmp    %edi,%ebx
 8049127:	7c e5                	jl     804910e <main+0x193>
 8049129:	85 ff                	test   %edi,%edi
 804912b:	7e 23                	jle    8049150 <main+0x1d5>
 804912d:	bb 00 00 00 00       	mov    $0x0,%ebx
 8049132:	8b 44 24 18          	mov    0x18(%esp),%eax
 8049136:	03 04 9e             	add    (%esi,%ebx,4),%eax
 8049139:	89 44 24 04          	mov    %eax,0x4(%esp)
 804913d:	8b 44 24 1c          	mov    0x1c(%esp),%eax
 8049141:	89 04 24             	mov    %eax,(%esp)
 8049144:	e8 68 fd ff ff       	call   8048eb1 <launcher>
 8049149:	83 c3 01             	add    $0x1,%ebx
 804914c:	39 fb                	cmp    %edi,%ebx
 804914e:	7c e2                	jl     8049132 <main+0x1b7>
 8049150:	b8 00 00 00 00       	mov    $0x0,%eax
 8049155:	83 c4 24             	add    $0x24,%esp
 8049158:	5b                   	pop    %ebx
 8049159:	5e                   	pop    %esi
 804915a:	5f                   	pop    %edi
 804915b:	89 ec                	mov    %ebp,%esp
 804915d:	5d                   	pop    %ebp
 804915e:	c3                   	ret    

0804915f <bang>:
 804915f:	55                   	push   %ebp
 8049160:	89 e5                	mov    %esp,%ebp
 8049162:	83 ec 18             	sub    $0x18,%esp
 8049165:	a1 00 d2 04 08       	mov    0x804d200,%eax
 804916a:	3b 05 f8 d1 04 08    	cmp    0x804d1f8,%eax
 8049170:	75 1e                	jne    8049190 <bang+0x31>
 8049172:	89 44 24 04          	mov    %eax,0x4(%esp)
 8049176:	c7 04 24 b4 a2 04 08 	movl   $0x804a2b4,(%esp)
 804917d:	e8 9e f8 ff ff       	call   8048a20 <printf@plt>
 8049182:	c7 04 24 02 00 00 00 	movl   $0x2,(%esp)
 8049189:	e8 a2 00 00 00       	call   8049230 <validate>
 804918e:	eb 10                	jmp    80491a0 <bang+0x41>
 8049190:	89 44 24 04          	mov    %eax,0x4(%esp)
 8049194:	c7 04 24 c4 a0 04 08 	movl   $0x804a0c4,(%esp)
 804919b:	e8 80 f8 ff ff       	call   8048a20 <printf@plt>
 80491a0:	c7 04 24 00 00 00 00 	movl   $0x0,(%esp)
 80491a7:	e8 34 f9 ff ff       	call   8048ae0 <exit@plt>

080491ac <fizz>:
 80491ac:	55                   	push   %ebp
 80491ad:	89 e5                	mov    %esp,%ebp
 80491af:	83 ec 18             	sub    $0x18,%esp
 80491b2:	8b 45 08             	mov    0x8(%ebp),%eax
 80491b5:	3b 05 f8 d1 04 08    	cmp    0x804d1f8,%eax
 80491bb:	75 1e                	jne    80491db <fizz+0x2f>
 80491bd:	89 44 24 04          	mov    %eax,0x4(%esp)
 80491c1:	c7 04 24 e2 a0 04 08 	movl   $0x804a0e2,(%esp)
 80491c8:	e8 53 f8 ff ff       	call   8048a20 <printf@plt>
 80491cd:	c7 04 24 01 00 00 00 	movl   $0x1,(%esp)
 80491d4:	e8 57 00 00 00       	call   8049230 <validate>
 80491d9:	eb 10                	jmp    80491eb <fizz+0x3f>
 80491db:	89 44 24 04          	mov    %eax,0x4(%esp)
 80491df:	c7 04 24 dc a2 04 08 	movl   $0x804a2dc,(%esp)
 80491e6:	e8 35 f8 ff ff       	call   8048a20 <printf@plt>
 80491eb:	c7 04 24 00 00 00 00 	movl   $0x0,(%esp)
 80491f2:	e8 e9 f8 ff ff       	call   8048ae0 <exit@plt>

080491f7 <smoke>:
 80491f7:	55                   	push   %ebp
 80491f8:	89 e5                	mov    %esp,%ebp
 80491fa:	83 ec 18             	sub    $0x18,%esp
 80491fd:	c7 04 24 00 a1 04 08 	movl   $0x804a100,(%esp)
 8049204:	e8 87 f8 ff ff       	call   8048a90 <puts@plt>
 8049209:	c7 04 24 00 00 00 00 	movl   $0x0,(%esp)
 8049210:	e8 1b 00 00 00       	call   8049230 <validate>
 8049215:	c7 04 24 00 00 00 00 	movl   $0x0,(%esp)
 804921c:	e8 bf f8 ff ff       	call   8048ae0 <exit@plt>
 8049221:	90                   	nop
 8049222:	90                   	nop
 8049223:	90                   	nop
 8049224:	90                   	nop
 8049225:	90                   	nop
 8049226:	90                   	nop
 8049227:	90                   	nop
 8049228:	90                   	nop
 8049229:	90                   	nop
 804922a:	90                   	nop
 804922b:	90                   	nop
 804922c:	90                   	nop
 804922d:	90                   	nop
 804922e:	90                   	nop
 804922f:	90                   	nop

08049230 <validate>:
 8049230:	55                   	push   %ebp
 8049231:	89 e5                	mov    %esp,%ebp
 8049233:	81 ec 28 40 00 00    	sub    $0x4028,%esp
 8049239:	89 5d f8             	mov    %ebx,-0x8(%ebp)
 804923c:	89 7d fc             	mov    %edi,-0x4(%ebp)
 804923f:	8b 5d 08             	mov    0x8(%ebp),%ebx
 8049242:	83 3d ec d1 04 08 00 	cmpl   $0x0,0x804d1ec
 8049249:	75 11                	jne    804925c <validate+0x2c>
 804924b:	c7 04 24 0c a3 04 08 	movl   $0x804a30c,(%esp)
 8049252:	e8 39 f8 ff ff       	call   8048a90 <puts@plt>
 8049257:	e9 0d 01 00 00       	jmp    8049369 <validate+0x139>
 804925c:	83 fb 04             	cmp    $0x4,%ebx
 804925f:	76 11                	jbe    8049272 <validate+0x42>
 8049261:	c7 04 24 38 a3 04 08 	movl   $0x804a338,(%esp)
 8049268:	e8 23 f8 ff ff       	call   8048a90 <puts@plt>
 804926d:	e9 f7 00 00 00       	jmp    8049369 <validate+0x139>
 8049272:	c7 05 fc d1 04 08 01 	movl   $0x1,0x804d1fc
 8049279:	00 00 00 
 804927c:	ba a0 d1 04 08       	mov    $0x804d1a0,%edx
 8049281:	8b 04 9a             	mov    (%edx,%ebx,4),%eax
 8049284:	83 e8 01             	sub    $0x1,%eax
 8049287:	89 04 9a             	mov    %eax,(%edx,%ebx,4)
 804928a:	85 c0                	test   %eax,%eax
 804928c:	7e 11                	jle    804929f <validate+0x6f>
 804928e:	c7 04 24 7b a4 04 08 	movl   $0x804a47b,(%esp)
 8049295:	e8 f6 f7 ff ff       	call   8048a90 <puts@plt>
 804929a:	e9 ca 00 00 00       	jmp    8049369 <validate+0x139>
 804929f:	c7 04 24 86 a4 04 08 	movl   $0x804a486,(%esp)
 80492a6:	e8 e5 f7 ff ff       	call   8048a90 <puts@plt>
 80492ab:	83 3d f0 d1 04 08 00 	cmpl   $0x0,0x804d1f0
 80492b2:	0f 84 a5 00 00 00    	je     804935d <validate+0x12d>
 80492b8:	bf 20 d2 04 08       	mov    $0x804d220,%edi
 80492bd:	b8 00 00 00 00       	mov    $0x0,%eax
 80492c2:	b9 ff ff ff ff       	mov    $0xffffffff,%ecx
 80492c7:	f2 ae                	repnz scas %es:(%edi),%al
 80492c9:	f7 d1                	not    %ecx
 80492cb:	83 c1 1f             	add    $0x1f,%ecx
 80492ce:	81 f9 00 20 00 00    	cmp    $0x2000,%ecx
 80492d4:	76 11                	jbe    80492e7 <validate+0xb7>
 80492d6:	c7 04 24 60 a3 04 08 	movl   $0x804a360,(%esp)
 80492dd:	e8 ae f7 ff ff       	call   8048a90 <puts@plt>
 80492e2:	e9 82 00 00 00       	jmp    8049369 <validate+0x139>
 80492e7:	c7 44 24 10 20 d2 04 	movl   $0x804d220,0x10(%esp)
 80492ee:	08 
 80492ef:	a1 f8 d1 04 08       	mov    0x804d1f8,%eax
 80492f4:	89 44 24 0c          	mov    %eax,0xc(%esp)
 80492f8:	89 5c 24 08          	mov    %ebx,0x8(%esp)
 80492fc:	c7 44 24 04 8c a4 04 	movl   $0x804a48c,0x4(%esp)
 8049303:	08 
 8049304:	8d 9d f8 df ff ff    	lea    -0x2008(%ebp),%ebx
 804930a:	89 1c 24             	mov    %ebx,(%esp)
 804930d:	e8 be f5 ff ff       	call   80488d0 <sprintf@plt>
 8049312:	8d 85 f8 bf ff ff    	lea    -0x4008(%ebp),%eax
 8049318:	89 44 24 0c          	mov    %eax,0xc(%esp)
 804931c:	c7 44 24 08 00 00 00 	movl   $0x0,0x8(%esp)
 8049323:	00 
 8049324:	89 5c 24 04          	mov    %ebx,0x4(%esp)
 8049328:	a1 ec d1 04 08       	mov    0x804d1ec,%eax
 804932d:	89 04 24             	mov    %eax,(%esp)
 8049330:	e8 96 0a 00 00       	call   8049dcb <driver_post>
 8049335:	85 c0                	test   %eax,%eax
 8049337:	75 0e                	jne    8049347 <validate+0x117>
 8049339:	c7 04 24 98 a3 04 08 	movl   $0x804a398,(%esp)
 8049340:	e8 4b f7 ff ff       	call   8048a90 <puts@plt>
 8049345:	eb 16                	jmp    804935d <validate+0x12d>
 8049347:	8d 85 f8 bf ff ff    	lea    -0x4008(%ebp),%eax
 804934d:	89 44 24 04          	mov    %eax,0x4(%esp)
 8049351:	c7 04 24 c8 a3 04 08 	movl   $0x804a3c8,(%esp)
 8049358:	e8 c3 f6 ff ff       	call   8048a20 <printf@plt>
 804935d:	c7 04 24 95 a4 04 08 	movl   $0x804a495,(%esp)
 8049364:	e8 27 f7 ff ff       	call   8048a90 <puts@plt>
 8049369:	8b 5d f8             	mov    -0x8(%ebp),%ebx
 804936c:	8b 7d fc             	mov    -0x4(%ebp),%edi
 804936f:	89 ec                	mov    %ebp,%esp
 8049371:	5d                   	pop    %ebp
 8049372:	c3                   	ret    

08049373 <initialize_bomb>:
 8049373:	55                   	push   %ebp
 8049374:	89 e5                	mov    %esp,%ebp
 8049376:	57                   	push   %edi
 8049377:	56                   	push   %esi
 8049378:	53                   	push   %ebx
 8049379:	81 ec 1c 24 00 00    	sub    $0x241c,%esp
 804937f:	c7 04 24 ff ff ff ff 	movl   $0xffffffff,(%esp)
 8049386:	e8 a1 02 00 00       	call   804962c <init_timeout>
 804938b:	83 3d f0 d1 04 08 00 	cmpl   $0x0,0x804d1f0
 8049392:	0f 84 eb 00 00 00    	je     8049483 <initialize_bomb+0x110>
 8049398:	c7 44 24 04 00 04 00 	movl   $0x400,0x4(%esp)
 804939f:	00 
 80493a0:	8d 85 e8 fb ff ff    	lea    -0x418(%ebp),%eax
 80493a6:	89 04 24             	mov    %eax,(%esp)
 80493a9:	e8 d2 f6 ff ff       	call   8048a80 <gethostname@plt>
 80493ae:	85 c0                	test   %eax,%eax
 80493b0:	75 1e                	jne    80493d0 <initialize_bomb+0x5d>
 80493b2:	a1 a0 c1 04 08       	mov    0x804c1a0,%eax
 80493b7:	bb 00 00 00 00       	mov    $0x0,%ebx
 80493bc:	8d b5 e8 fb ff ff    	lea    -0x418(%ebp),%esi
 80493c2:	bf a0 c1 04 08       	mov    $0x804c1a0,%edi
 80493c7:	85 c0                	test   %eax,%eax
 80493c9:	75 1d                	jne    80493e8 <initialize_bomb+0x75>
 80493cb:	e9 92 00 00 00       	jmp    8049462 <initialize_bomb+0xef>
 80493d0:	c7 04 24 08 a4 04 08 	movl   $0x804a408,(%esp)
 80493d7:	e8 b4 f6 ff ff       	call   8048a90 <puts@plt>
 80493dc:	c7 04 24 08 00 00 00 	movl   $0x8,(%esp)
 80493e3:	e8 f8 f6 ff ff       	call   8048ae0 <exit@plt>
 80493e8:	89 74 24 04          	mov    %esi,0x4(%esp)
 80493ec:	89 04 24             	mov    %eax,(%esp)
 80493ef:	e8 3c f6 ff ff       	call   8048a30 <strcasecmp@plt>
 80493f4:	85 c0                	test   %eax,%eax
 80493f6:	74 0c                	je     8049404 <initialize_bomb+0x91>
 80493f8:	83 c3 01             	add    $0x1,%ebx
 80493fb:	8b 04 9f             	mov    (%edi,%ebx,4),%eax
 80493fe:	85 c0                	test   %eax,%eax
 8049400:	75 e6                	jne    80493e8 <initialize_bomb+0x75>
 8049402:	eb 5e                	jmp    8049462 <initialize_bomb+0xef>
 8049404:	8d 85 e8 db ff ff    	lea    -0x2418(%ebp),%eax
 804940a:	89 04 24             	mov    %eax,(%esp)
 804940d:	e8 7e 00 00 00       	call   8049490 <init_driver>
 8049412:	85 c0                	test   %eax,%eax
 8049414:	79 6d                	jns    8049483 <initialize_bomb+0x110>
 8049416:	eb 28                	jmp    8049440 <initialize_bomb+0xcd>
 8049418:	bb 00 00 00 00       	mov    $0x0,%ebx
 804941d:	be a0 c1 04 08       	mov    $0x804c1a0,%esi
 8049422:	89 04 24             	mov    %eax,(%esp)
 8049425:	e8 66 f6 ff ff       	call   8048a90 <puts@plt>
 804942a:	83 c3 01             	add    $0x1,%ebx
 804942d:	8b 04 9e             	mov    (%esi,%ebx,4),%eax
 8049430:	85 c0                	test   %eax,%eax
 8049432:	75 ee                	jne    8049422 <initialize_bomb+0xaf>
 8049434:	c7 04 24 08 00 00 00 	movl   $0x8,(%esp)
 804943b:	e8 a0 f6 ff ff       	call   8048ae0 <exit@plt>
 8049440:	8d 85 e8 db ff ff    	lea    -0x2418(%ebp),%eax
 8049446:	89 44 24 04          	mov    %eax,0x4(%esp)
 804944a:	c7 04 24 9f a4 04 08 	movl   $0x804a49f,(%esp)
 8049451:	e8 ca f5 ff ff       	call   8048a20 <printf@plt>
 8049456:	c7 04 24 08 00 00 00 	movl   $0x8,(%esp)
 804945d:	e8 7e f6 ff ff       	call   8048ae0 <exit@plt>
 8049462:	8d 85 e8 fb ff ff    	lea    -0x418(%ebp),%eax
 8049468:	89 44 24 04          	mov    %eax,0x4(%esp)
 804946c:	c7 04 24 40 a4 04 08 	movl   $0x804a440,(%esp)
 8049473:	e8 a8 f5 ff ff       	call   8048a20 <printf@plt>
 8049478:	a1 a0 c1 04 08       	mov    0x804c1a0,%eax
 804947d:	85 c0                	test   %eax,%eax
 804947f:	75 97                	jne    8049418 <initialize_bomb+0xa5>
 8049481:	eb b1                	jmp    8049434 <initialize_bomb+0xc1>
 8049483:	81 c4 1c 24 00 00    	add    $0x241c,%esp
 8049489:	5b                   	pop    %ebx
 804948a:	5e                   	pop    %esi
 804948b:	5f                   	pop    %edi
 804948c:	5d                   	pop    %ebp
 804948d:	c3                   	ret    
 804948e:	90                   	nop
 804948f:	90                   	nop

08049490 <init_driver>:
 8049490:	55                   	push   %ebp
 8049491:	89 e5                	mov    %esp,%ebp
 8049493:	57                   	push   %edi
 8049494:	56                   	push   %esi
 8049495:	53                   	push   %ebx
 8049496:	83 ec 2c             	sub    $0x2c,%esp
 8049499:	8b 7d 08             	mov    0x8(%ebp),%edi
 804949c:	c7 44 24 04 01 00 00 	movl   $0x1,0x4(%esp)
 80494a3:	00 
 80494a4:	c7 04 24 0d 00 00 00 	movl   $0xd,(%esp)
 80494ab:	e8 80 f4 ff ff       	call   8048930 <signal@plt>
 80494b0:	c7 44 24 04 01 00 00 	movl   $0x1,0x4(%esp)
 80494b7:	00 
 80494b8:	c7 04 24 1d 00 00 00 	movl   $0x1d,(%esp)
 80494bf:	e8 6c f4 ff ff       	call   8048930 <signal@plt>
 80494c4:	c7 44 24 04 01 00 00 	movl   $0x1,0x4(%esp)
 80494cb:	00 
 80494cc:	c7 04 24 1d 00 00 00 	movl   $0x1d,(%esp)
 80494d3:	e8 58 f4 ff ff       	call   8048930 <signal@plt>
 80494d8:	c7 44 24 08 00 00 00 	movl   $0x0,0x8(%esp)
 80494df:	00 
 80494e0:	c7 44 24 04 01 00 00 	movl   $0x1,0x4(%esp)
 80494e7:	00 
 80494e8:	c7 04 24 02 00 00 00 	movl   $0x2,(%esp)
 80494ef:	e8 cc f4 ff ff       	call   80489c0 <socket@plt>
 80494f4:	89 c6                	mov    %eax,%esi
 80494f6:	85 c0                	test   %eax,%eax
 80494f8:	79 4e                	jns    8049548 <init_driver+0xb8>
 80494fa:	c7 07 45 72 72 6f    	movl   $0x6f727245,(%edi)
 8049500:	c7 47 04 72 3a 20 43 	movl   $0x43203a72,0x4(%edi)
 8049507:	c7 47 08 6c 69 65 6e 	movl   $0x6e65696c,0x8(%edi)
 804950e:	c7 47 0c 74 20 75 6e 	movl   $0x6e752074,0xc(%edi)
 8049515:	c7 47 10 61 62 6c 65 	movl   $0x656c6261,0x10(%edi)
 804951c:	c7 47 14 20 74 6f 20 	movl   $0x206f7420,0x14(%edi)
 8049523:	c7 47 18 63 72 65 61 	movl   $0x61657263,0x18(%edi)
 804952a:	c7 47 1c 74 65 20 73 	movl   $0x73206574,0x1c(%edi)
 8049531:	c7 47 20 6f 63 6b 65 	movl   $0x656b636f,0x20(%edi)
 8049538:	66 c7 47 24 74 00    	movw   $0x74,0x24(%edi)
 804953e:	b8 ff ff ff ff       	mov    $0xffffffff,%eax
 8049543:	e9 dc 00 00 00       	jmp    8049624 <init_driver+0x194>
 8049548:	c7 04 24 61 a5 04 08 	movl   $0x804a561,(%esp)
 804954f:	e8 6c f5 ff ff       	call   8048ac0 <gethostbyname@plt>
 8049554:	85 c0                	test   %eax,%eax
 8049556:	75 2a                	jne    8049582 <init_driver+0xf2>
 8049558:	c7 44 24 08 61 a5 04 	movl   $0x804a561,0x8(%esp)
 804955f:	08 
 8049560:	c7 44 24 04 f4 b0 04 	movl   $0x804b0f4,0x4(%esp)
 8049567:	08 
 8049568:	89 3c 24             	mov    %edi,(%esp)
 804956b:	e8 60 f3 ff ff       	call   80488d0 <sprintf@plt>
 8049570:	89 34 24             	mov    %esi,(%esp)
 8049573:	e8 d8 f4 ff ff       	call   8048a50 <close@plt>
 8049578:	b8 ff ff ff ff       	mov    $0xffffffff,%eax
 804957d:	e9 a2 00 00 00       	jmp    8049624 <init_driver+0x194>
 8049582:	8d 5d d8             	lea    -0x28(%ebp),%ebx
 8049585:	c7 03 00 00 00 00    	movl   $0x0,(%ebx)
 804958b:	c7 43 04 00 00 00 00 	movl   $0x0,0x4(%ebx)
 8049592:	c7 43 08 00 00 00 00 	movl   $0x0,0x8(%ebx)
 8049599:	c7 43 0c 00 00 00 00 	movl   $0x0,0xc(%ebx)
 80495a0:	66 c7 45 d8 02 00    	movw   $0x2,-0x28(%ebp)
 80495a6:	8b 50 0c             	mov    0xc(%eax),%edx
 80495a9:	89 54 24 08          	mov    %edx,0x8(%esp)
 80495ad:	8d 55 dc             	lea    -0x24(%ebp),%edx
 80495b0:	89 54 24 04          	mov    %edx,0x4(%esp)
 80495b4:	8b 40 10             	mov    0x10(%eax),%eax
 80495b7:	8b 00                	mov    (%eax),%eax
 80495b9:	89 04 24             	mov    %eax,(%esp)
 80495bc:	e8 0f f4 ff ff       	call   80489d0 <bcopy@plt>
 80495c1:	66 c7 45 da 0c e5    	movw   $0xe50c,-0x26(%ebp)
 80495c7:	c7 44 24 08 10 00 00 	movl   $0x10,0x8(%esp)
 80495ce:	00 
 80495cf:	89 5c 24 04          	mov    %ebx,0x4(%esp)
 80495d3:	89 34 24             	mov    %esi,(%esp)
 80495d6:	e8 15 f3 ff ff       	call   80488f0 <connect@plt>
 80495db:	85 c0                	test   %eax,%eax
 80495dd:	79 2f                	jns    804960e <init_driver+0x17e>
 80495df:	c7 44 24 0c e5 0c 00 	movl   $0xce5,0xc(%esp)
 80495e6:	00 
 80495e7:	c7 44 24 08 61 a5 04 	movl   $0x804a561,0x8(%esp)
 80495ee:	08 
 80495ef:	c7 44 24 04 20 b1 04 	movl   $0x804b120,0x4(%esp)
 80495f6:	08 
 80495f7:	89 3c 24             	mov    %edi,(%esp)
 80495fa:	e8 d1 f2 ff ff       	call   80488d0 <sprintf@plt>
 80495ff:	89 34 24             	mov    %esi,(%esp)
 8049602:	e8 49 f4 ff ff       	call   8048a50 <close@plt>
 8049607:	b8 ff ff ff ff       	mov    $0xffffffff,%eax
 804960c:	eb 16                	jmp    8049624 <init_driver+0x194>
 804960e:	89 34 24             	mov    %esi,(%esp)
 8049611:	e8 3a f4 ff ff       	call   8048a50 <close@plt>
 8049616:	66 c7 07 4f 4b       	movw   $0x4b4f,(%edi)
 804961b:	c6 47 02 00          	movb   $0x0,0x2(%edi)
 804961f:	b8 00 00 00 00       	mov    $0x0,%eax
 8049624:	83 c4 2c             	add    $0x2c,%esp
 8049627:	5b                   	pop    %ebx
 8049628:	5e                   	pop    %esi
 8049629:	5f                   	pop    %edi
 804962a:	5d                   	pop    %ebp
 804962b:	c3                   	ret    

0804962c <init_timeout>:
 804962c:	55                   	push   %ebp
 804962d:	89 e5                	mov    %esp,%ebp
 804962f:	53                   	push   %ebx
 8049630:	83 ec 14             	sub    $0x14,%esp
 8049633:	8b 5d 08             	mov    0x8(%ebp),%ebx
 8049636:	85 db                	test   %ebx,%ebx
 8049638:	74 25                	je     804965f <init_timeout+0x33>
 804963a:	85 db                	test   %ebx,%ebx
 804963c:	79 05                	jns    8049643 <init_timeout+0x17>
 804963e:	bb 05 00 00 00       	mov    $0x5,%ebx
 8049643:	c7 44 24 04 50 9e 04 	movl   $0x8049e50,0x4(%esp)
 804964a:	08 
 804964b:	c7 04 24 0e 00 00 00 	movl   $0xe,(%esp)
 8049652:	e8 d9 f2 ff ff       	call   8048930 <signal@plt>
 8049657:	89 1c 24             	mov    %ebx,(%esp)
 804965a:	e8 a1 f3 ff ff       	call   8048a00 <alarm@plt>
 804965f:	83 c4 14             	add    $0x14,%esp
 8049662:	5b                   	pop    %ebx
 8049663:	5d                   	pop    %ebp
 8049664:	c3                   	ret    

08049665 <rio_readlineb>:
 8049665:	55                   	push   %ebp
 8049666:	89 e5                	mov    %esp,%ebp
 8049668:	57                   	push   %edi
 8049669:	56                   	push   %esi
 804966a:	53                   	push   %ebx
 804966b:	83 ec 3c             	sub    $0x3c,%esp
 804966e:	89 c3                	mov    %eax,%ebx
 8049670:	89 4d c8             	mov    %ecx,-0x38(%ebp)
 8049673:	89 55 d0             	mov    %edx,-0x30(%ebp)
 8049676:	83 f9 01             	cmp    $0x1,%ecx
 8049679:	0f 86 c3 00 00 00    	jbe    8049742 <rio_readlineb+0xdd>
 804967f:	8d 78 0c             	lea    0xc(%eax),%edi
 8049682:	89 7d d4             	mov    %edi,-0x2c(%ebp)
 8049685:	c7 45 cc 01 00 00 00 	movl   $0x1,-0x34(%ebp)
 804968c:	eb 3e                	jmp    80496cc <rio_readlineb+0x67>
 804968e:	c7 44 24 08 00 20 00 	movl   $0x2000,0x8(%esp)
 8049695:	00 
 8049696:	89 7c 24 04          	mov    %edi,0x4(%esp)
 804969a:	8b 03                	mov    (%ebx),%eax
 804969c:	89 04 24             	mov    %eax,(%esp)
 804969f:	e8 0c f3 ff ff       	call   80489b0 <read@plt>
 80496a4:	89 43 04             	mov    %eax,0x4(%ebx)
 80496a7:	85 c0                	test   %eax,%eax
 80496a9:	79 11                	jns    80496bc <rio_readlineb+0x57>
 80496ab:	e8 10 f2 ff ff       	call   80488c0 <__errno_location@plt>
 80496b0:	83 38 04             	cmpl   $0x4,(%eax)
 80496b3:	74 17                	je     80496cc <rio_readlineb+0x67>
 80496b5:	be ff ff ff ff       	mov    $0xffffffff,%esi
 80496ba:	eb 57                	jmp    8049713 <rio_readlineb+0xae>
 80496bc:	85 c0                	test   %eax,%eax
 80496be:	66 90                	xchg   %ax,%ax
 80496c0:	0f 84 94 00 00 00    	je     804975a <rio_readlineb+0xf5>
 80496c6:	8b 45 d4             	mov    -0x2c(%ebp),%eax
 80496c9:	89 43 08             	mov    %eax,0x8(%ebx)
 80496cc:	8b 73 04             	mov    0x4(%ebx),%esi
 80496cf:	85 f6                	test   %esi,%esi
 80496d1:	7e bb                	jle    804968e <rio_readlineb+0x29>
 80496d3:	85 f6                	test   %esi,%esi
 80496d5:	0f 85 86 00 00 00    	jne    8049761 <rio_readlineb+0xfc>
 80496db:	8b 43 08             	mov    0x8(%ebx),%eax
 80496de:	89 74 24 08          	mov    %esi,0x8(%esp)
 80496e2:	89 44 24 04          	mov    %eax,0x4(%esp)
 80496e6:	8d 55 e7             	lea    -0x19(%ebp),%edx
 80496e9:	89 14 24             	mov    %edx,(%esp)
 80496ec:	e8 ff f2 ff ff       	call   80489f0 <memcpy@plt>
 80496f1:	01 73 08             	add    %esi,0x8(%ebx)
 80496f4:	29 73 04             	sub    %esi,0x4(%ebx)
 80496f7:	83 fe 01             	cmp    $0x1,%esi
 80496fa:	75 17                	jne    8049713 <rio_readlineb+0xae>
 80496fc:	0f b6 45 e7          	movzbl -0x19(%ebp),%eax
 8049700:	8b 55 d0             	mov    -0x30(%ebp),%edx
 8049703:	88 02                	mov    %al,(%edx)
 8049705:	83 c2 01             	add    $0x1,%edx
 8049708:	89 55 d0             	mov    %edx,-0x30(%ebp)
 804970b:	80 7d e7 0a          	cmpb   $0xa,-0x19(%ebp)
 804970f:	75 21                	jne    8049732 <rio_readlineb+0xcd>
 8049711:	eb 36                	jmp    8049749 <rio_readlineb+0xe4>
 8049713:	8b 45 cc             	mov    -0x34(%ebp),%eax
 8049716:	85 f6                	test   %esi,%esi
 8049718:	74 09                	je     8049723 <rio_readlineb+0xbe>
 804971a:	c7 45 cc ff ff ff ff 	movl   $0xffffffff,-0x34(%ebp)
 8049721:	eb 2c                	jmp    804974f <rio_readlineb+0xea>
 8049723:	83 f8 01             	cmp    $0x1,%eax
 8049726:	75 21                	jne    8049749 <rio_readlineb+0xe4>
 8049728:	c7 45 cc 00 00 00 00 	movl   $0x0,-0x34(%ebp)
 804972f:	90                   	nop
 8049730:	eb 1d                	jmp    804974f <rio_readlineb+0xea>
 8049732:	83 45 cc 01          	addl   $0x1,-0x34(%ebp)
 8049736:	8b 45 cc             	mov    -0x34(%ebp),%eax
 8049739:	39 45 c8             	cmp    %eax,-0x38(%ebp)
 804973c:	77 8e                	ja     80496cc <rio_readlineb+0x67>
 804973e:	66 90                	xchg   %ax,%ax
 8049740:	eb 07                	jmp    8049749 <rio_readlineb+0xe4>
 8049742:	c7 45 cc 01 00 00 00 	movl   $0x1,-0x34(%ebp)
 8049749:	8b 55 d0             	mov    -0x30(%ebp),%edx
 804974c:	c6 02 00             	movb   $0x0,(%edx)
 804974f:	8b 45 cc             	mov    -0x34(%ebp),%eax
 8049752:	83 c4 3c             	add    $0x3c,%esp
 8049755:	5b                   	pop    %ebx
 8049756:	5e                   	pop    %esi
 8049757:	5f                   	pop    %edi
 8049758:	5d                   	pop    %ebp
 8049759:	c3                   	ret    
 804975a:	be 00 00 00 00       	mov    $0x0,%esi
 804975f:	eb b2                	jmp    8049713 <rio_readlineb+0xae>
 8049761:	8b 43 08             	mov    0x8(%ebx),%eax
 8049764:	0f b6 00             	movzbl (%eax),%eax
 8049767:	88 45 e7             	mov    %al,-0x19(%ebp)
 804976a:	83 43 08 01          	addl   $0x1,0x8(%ebx)
 804976e:	83 6b 04 01          	subl   $0x1,0x4(%ebx)
 8049772:	eb 88                	jmp    80496fc <rio_readlineb+0x97>

08049774 <submitr>:
 8049774:	55                   	push   %ebp
 8049775:	89 e5                	mov    %esp,%ebp
 8049777:	57                   	push   %edi
 8049778:	56                   	push   %esi
 8049779:	53                   	push   %ebx
 804977a:	81 ec 6c a0 00 00    	sub    $0xa06c,%esp
 8049780:	8b 75 08             	mov    0x8(%ebp),%esi
 8049783:	c7 85 c8 7f ff ff 00 	movl   $0x0,-0x8038(%ebp)
 804978a:	00 00 00 
 804978d:	c7 44 24 08 00 00 00 	movl   $0x0,0x8(%esp)
 8049794:	00 
 8049795:	c7 44 24 04 01 00 00 	movl   $0x1,0x4(%esp)
 804979c:	00 
 804979d:	c7 04 24 02 00 00 00 	movl   $0x2,(%esp)
 80497a4:	e8 17 f2 ff ff       	call   80489c0 <socket@plt>
 80497a9:	89 85 b0 5f ff ff    	mov    %eax,-0xa050(%ebp)
 80497af:	85 c0                	test   %eax,%eax
 80497b1:	79 1b                	jns    80497ce <submitr+0x5a>
 80497b3:	b8 4c b1 04 08       	mov    $0x804b14c,%eax
 80497b8:	b9 26 00 00 00       	mov    $0x26,%ecx
 80497bd:	8b 7d 20             	mov    0x20(%ebp),%edi
 80497c0:	89 c6                	mov    %eax,%esi
 80497c2:	f3 a4                	rep movsb %ds:(%esi),%es:(%edi)
 80497c4:	b8 ff ff ff ff       	mov    $0xffffffff,%eax
 80497c9:	e9 8b 05 00 00       	jmp    8049d59 <submitr+0x5e5>
 80497ce:	89 34 24             	mov    %esi,(%esp)
 80497d1:	e8 ea f2 ff ff       	call   8048ac0 <gethostbyname@plt>
 80497d6:	85 c0                	test   %eax,%eax
 80497d8:	75 2f                	jne    8049809 <submitr+0x95>
 80497da:	89 74 24 08          	mov    %esi,0x8(%esp)
 80497de:	c7 44 24 04 f4 b0 04 	movl   $0x804b0f4,0x4(%esp)
 80497e5:	08 
 80497e6:	8b 45 20             	mov    0x20(%ebp),%eax
 80497e9:	89 04 24             	mov    %eax,(%esp)
 80497ec:	e8 df f0 ff ff       	call   80488d0 <sprintf@plt>
 80497f1:	8b 8d b0 5f ff ff    	mov    -0xa050(%ebp),%ecx
 80497f7:	89 0c 24             	mov    %ecx,(%esp)
 80497fa:	e8 51 f2 ff ff       	call   8048a50 <close@plt>
 80497ff:	b8 ff ff ff ff       	mov    $0xffffffff,%eax
 8049804:	e9 50 05 00 00       	jmp    8049d59 <submitr+0x5e5>
 8049809:	8d 5d d8             	lea    -0x28(%ebp),%ebx
 804980c:	c7 03 00 00 00 00    	movl   $0x0,(%ebx)
 8049812:	c7 43 04 00 00 00 00 	movl   $0x0,0x4(%ebx)
 8049819:	c7 43 08 00 00 00 00 	movl   $0x0,0x8(%ebx)
 8049820:	c7 43 0c 00 00 00 00 	movl   $0x0,0xc(%ebx)
 8049827:	66 c7 45 d8 02 00    	movw   $0x2,-0x28(%ebp)
 804982d:	8b 50 0c             	mov    0xc(%eax),%edx
 8049830:	89 54 24 08          	mov    %edx,0x8(%esp)
 8049834:	8d 55 dc             	lea    -0x24(%ebp),%edx
 8049837:	89 54 24 04          	mov    %edx,0x4(%esp)
 804983b:	8b 40 10             	mov    0x10(%eax),%eax
 804983e:	8b 00                	mov    (%eax),%eax
 8049840:	89 04 24             	mov    %eax,(%esp)
 8049843:	e8 88 f1 ff ff       	call   80489d0 <bcopy@plt>
 8049848:	0f b7 45 0c          	movzwl 0xc(%ebp),%eax
 804984c:	66 c1 c8 08          	ror    $0x8,%ax
 8049850:	66 89 45 da          	mov    %ax,-0x26(%ebp)
 8049854:	c7 44 24 08 10 00 00 	movl   $0x10,0x8(%esp)
 804985b:	00 
 804985c:	89 5c 24 04          	mov    %ebx,0x4(%esp)
 8049860:	8b bd b0 5f ff ff    	mov    -0xa050(%ebp),%edi
 8049866:	89 3c 24             	mov    %edi,(%esp)
 8049869:	e8 82 f0 ff ff       	call   80488f0 <connect@plt>
 804986e:	85 c0                	test   %eax,%eax
 8049870:	79 29                	jns    804989b <submitr+0x127>
 8049872:	89 74 24 08          	mov    %esi,0x8(%esp)
 8049876:	c7 44 24 04 74 b1 04 	movl   $0x804b174,0x4(%esp)
 804987d:	08 
 804987e:	8b 45 20             	mov    0x20(%ebp),%eax
 8049881:	89 04 24             	mov    %eax,(%esp)
 8049884:	e8 47 f0 ff ff       	call   80488d0 <sprintf@plt>
 8049889:	89 3c 24             	mov    %edi,(%esp)
 804988c:	e8 bf f1 ff ff       	call   8048a50 <close@plt>
 8049891:	b8 ff ff ff ff       	mov    $0xffffffff,%eax
 8049896:	e9 be 04 00 00       	jmp    8049d59 <submitr+0x5e5>
 804989b:	ba ff ff ff ff       	mov    $0xffffffff,%edx
 80498a0:	8b 7d 1c             	mov    0x1c(%ebp),%edi
 80498a3:	b8 00 00 00 00       	mov    $0x0,%eax
 80498a8:	89 d1                	mov    %edx,%ecx
 80498aa:	f2 ae                	repnz scas %es:(%edi),%al
 80498ac:	89 cb                	mov    %ecx,%ebx
 80498ae:	f7 d3                	not    %ebx
 80498b0:	8b 7d 10             	mov    0x10(%ebp),%edi
 80498b3:	89 d1                	mov    %edx,%ecx
 80498b5:	f2 ae                	repnz scas %es:(%edi),%al
 80498b7:	89 8d b4 5f ff ff    	mov    %ecx,-0xa04c(%ebp)
 80498bd:	8b 7d 14             	mov    0x14(%ebp),%edi
 80498c0:	89 d1                	mov    %edx,%ecx
 80498c2:	f2 ae                	repnz scas %es:(%edi),%al
 80498c4:	89 ce                	mov    %ecx,%esi
 80498c6:	f7 d6                	not    %esi
 80498c8:	8b 7d 18             	mov    0x18(%ebp),%edi
 80498cb:	89 d1                	mov    %edx,%ecx
 80498cd:	f2 ae                	repnz scas %es:(%edi),%al
 80498cf:	2b b5 b4 5f ff ff    	sub    -0xa04c(%ebp),%esi
 80498d5:	29 ce                	sub    %ecx,%esi
 80498d7:	8d 44 5b fd          	lea    -0x3(%ebx,%ebx,2),%eax
 80498db:	8d 44 06 7b          	lea    0x7b(%esi,%eax,1),%eax
 80498df:	3d 00 20 00 00       	cmp    $0x2000,%eax
 80498e4:	76 7c                	jbe    8049962 <submitr+0x1ee>
 80498e6:	8b 75 20             	mov    0x20(%ebp),%esi
 80498e9:	c7 06 45 72 72 6f    	movl   $0x6f727245,(%esi)
 80498ef:	c7 46 04 72 3a 20 52 	movl   $0x52203a72,0x4(%esi)
 80498f6:	c7 46 08 65 73 75 6c 	movl   $0x6c757365,0x8(%esi)
 80498fd:	c7 46 0c 74 20 73 74 	movl   $0x74732074,0xc(%esi)
 8049904:	c7 46 10 72 69 6e 67 	movl   $0x676e6972,0x10(%esi)
 804990b:	c7 46 14 20 74 6f 6f 	movl   $0x6f6f7420,0x14(%esi)
 8049912:	c7 46 18 20 6c 61 72 	movl   $0x72616c20,0x18(%esi)
 8049919:	c7 46 1c 67 65 2e 20 	movl   $0x202e6567,0x1c(%esi)
 8049920:	c7 46 20 49 6e 63 72 	movl   $0x72636e49,0x20(%esi)
 8049927:	c7 46 24 65 61 73 65 	movl   $0x65736165,0x24(%esi)
 804992e:	c7 46 28 20 53 55 42 	movl   $0x42555320,0x28(%esi)
 8049935:	c7 46 2c 4d 49 54 52 	movl   $0x5254494d,0x2c(%esi)
 804993c:	c7 46 30 5f 4d 41 58 	movl   $0x58414d5f,0x30(%esi)
 8049943:	c7 46 34 42 55 46 00 	movl   $0x465542,0x34(%esi)
 804994a:	8b bd b0 5f ff ff    	mov    -0xa050(%ebp),%edi
 8049950:	89 3c 24             	mov    %edi,(%esp)
 8049953:	e8 f8 f0 ff ff       	call   8048a50 <close@plt>
 8049958:	b8 ff ff ff ff       	mov    $0xffffffff,%eax
 804995d:	e9 f7 03 00 00       	jmp    8049d59 <submitr+0x5e5>
 8049962:	8d 95 cc 9f ff ff    	lea    -0x6034(%ebp),%edx
 8049968:	b9 00 08 00 00       	mov    $0x800,%ecx
 804996d:	b8 00 00 00 00       	mov    $0x0,%eax
 8049972:	89 d7                	mov    %edx,%edi
 8049974:	f3 ab                	rep stos %eax,%es:(%edi)
 8049976:	8b 7d 1c             	mov    0x1c(%ebp),%edi
 8049979:	b9 ff ff ff ff       	mov    $0xffffffff,%ecx
 804997e:	f2 ae                	repnz scas %es:(%edi),%al
 8049980:	f7 d1                	not    %ecx
 8049982:	89 cf                	mov    %ecx,%edi
 8049984:	83 ef 01             	sub    $0x1,%edi
 8049987:	0f 84 d7 03 00 00    	je     8049d64 <submitr+0x5f0>
 804998d:	89 d6                	mov    %edx,%esi
 804998f:	bb 00 00 00 00       	mov    $0x0,%ebx
 8049994:	89 bd b4 5f ff ff    	mov    %edi,-0xa04c(%ebp)
 804999a:	8b 7d 1c             	mov    0x1c(%ebp),%edi
 804999d:	0f b6 04 1f          	movzbl (%edi,%ebx,1),%eax
 80499a1:	3c 2a                	cmp    $0x2a,%al
 80499a3:	74 25                	je     80499ca <submitr+0x256>
 80499a5:	3c 2d                	cmp    $0x2d,%al
 80499a7:	74 21                	je     80499ca <submitr+0x256>
 80499a9:	3c 2e                	cmp    $0x2e,%al
 80499ab:	74 1d                	je     80499ca <submitr+0x256>
 80499ad:	3c 5f                	cmp    $0x5f,%al
 80499af:	90                   	nop
 80499b0:	74 18                	je     80499ca <submitr+0x256>
 80499b2:	8d 50 d0             	lea    -0x30(%eax),%edx
 80499b5:	80 fa 09             	cmp    $0x9,%dl
 80499b8:	76 10                	jbe    80499ca <submitr+0x256>
 80499ba:	8d 50 bf             	lea    -0x41(%eax),%edx
 80499bd:	80 fa 19             	cmp    $0x19,%dl
 80499c0:	76 08                	jbe    80499ca <submitr+0x256>
 80499c2:	8d 50 9f             	lea    -0x61(%eax),%edx
 80499c5:	80 fa 19             	cmp    $0x19,%dl
 80499c8:	77 07                	ja     80499d1 <submitr+0x25d>
 80499ca:	88 06                	mov    %al,(%esi)
 80499cc:	83 c6 01             	add    $0x1,%esi
 80499cf:	eb 55                	jmp    8049a26 <submitr+0x2b2>
 80499d1:	3c 20                	cmp    $0x20,%al
 80499d3:	75 08                	jne    80499dd <submitr+0x269>
 80499d5:	c6 06 2b             	movb   $0x2b,(%esi)
 80499d8:	83 c6 01             	add    $0x1,%esi
 80499db:	eb 49                	jmp    8049a26 <submitr+0x2b2>
 80499dd:	8d 50 e0             	lea    -0x20(%eax),%edx
 80499e0:	80 fa 5f             	cmp    $0x5f,%dl
 80499e3:	76 04                	jbe    80499e9 <submitr+0x275>
 80499e5:	3c 09                	cmp    $0x9,%al
 80499e7:	75 51                	jne    8049a3a <submitr+0x2c6>
 80499e9:	0f b6 c0             	movzbl %al,%eax
 80499ec:	89 44 24 08          	mov    %eax,0x8(%esp)
 80499f0:	c7 44 24 04 b0 b0 04 	movl   $0x804b0b0,0x4(%esp)
 80499f7:	08 
 80499f8:	8d 85 c0 5f ff ff    	lea    -0xa040(%ebp),%eax
 80499fe:	89 04 24             	mov    %eax,(%esp)
 8049a01:	e8 ca ee ff ff       	call   80488d0 <sprintf@plt>
 8049a06:	0f b6 85 c0 5f ff ff 	movzbl -0xa040(%ebp),%eax
 8049a0d:	88 06                	mov    %al,(%esi)
 8049a0f:	0f b6 85 c1 5f ff ff 	movzbl -0xa03f(%ebp),%eax
 8049a16:	88 46 01             	mov    %al,0x1(%esi)
 8049a19:	0f b6 85 c2 5f ff ff 	movzbl -0xa03e(%ebp),%eax
 8049a20:	88 46 02             	mov    %al,0x2(%esi)
 8049a23:	83 c6 03             	add    $0x3,%esi
 8049a26:	83 c3 01             	add    $0x1,%ebx
 8049a29:	3b 9d b4 5f ff ff    	cmp    -0xa04c(%ebp),%ebx
 8049a2f:	0f 85 68 ff ff ff    	jne    804999d <submitr+0x229>
 8049a35:	e9 2a 03 00 00       	jmp    8049d64 <submitr+0x5f0>
 8049a3a:	b8 9c b1 04 08       	mov    $0x804b19c,%eax
 8049a3f:	b9 43 00 00 00       	mov    $0x43,%ecx
 8049a44:	8b 7d 20             	mov    0x20(%ebp),%edi
 8049a47:	89 c6                	mov    %eax,%esi
 8049a49:	f3 a4                	rep movsb %ds:(%esi),%es:(%edi)
 8049a4b:	8b 85 b0 5f ff ff    	mov    -0xa050(%ebp),%eax
 8049a51:	89 04 24             	mov    %eax,(%esp)
 8049a54:	e8 f7 ef ff ff       	call   8048a50 <close@plt>
 8049a59:	b8 ff ff ff ff       	mov    $0xffffffff,%eax
 8049a5e:	e9 f6 02 00 00       	jmp    8049d59 <submitr+0x5e5>
 8049a63:	01 c6                	add    %eax,%esi
 8049a65:	89 5c 24 08          	mov    %ebx,0x8(%esp)
 8049a69:	89 74 24 04          	mov    %esi,0x4(%esp)
 8049a6d:	89 3c 24             	mov    %edi,(%esp)
 8049a70:	e8 fb ee ff ff       	call   8048970 <write@plt>
 8049a75:	85 c0                	test   %eax,%eax
 8049a77:	7f 0f                	jg     8049a88 <submitr+0x314>
 8049a79:	e8 42 ee ff ff       	call   80488c0 <__errno_location@plt>
 8049a7e:	83 38 04             	cmpl   $0x4,(%eax)
 8049a81:	75 13                	jne    8049a96 <submitr+0x322>
 8049a83:	b8 00 00 00 00       	mov    $0x0,%eax
 8049a88:	29 c3                	sub    %eax,%ebx
 8049a8a:	75 d7                	jne    8049a63 <submitr+0x2ef>
 8049a8c:	8b bd b4 5f ff ff    	mov    -0xa04c(%ebp),%edi
 8049a92:	85 ff                	test   %edi,%edi
 8049a94:	79 64                	jns    8049afa <submitr+0x386>
 8049a96:	8b 7d 20             	mov    0x20(%ebp),%edi
 8049a99:	be e0 b1 04 08       	mov    $0x804b1e0,%esi
 8049a9e:	b8 2c 00 00 00       	mov    $0x2c,%eax
 8049aa3:	f7 c7 01 00 00 00    	test   $0x1,%edi
 8049aa9:	74 04                	je     8049aaf <submitr+0x33b>
 8049aab:	a4                   	movsb  %ds:(%esi),%es:(%edi)
 8049aac:	83 e8 01             	sub    $0x1,%eax
 8049aaf:	f7 c7 02 00 00 00    	test   $0x2,%edi
 8049ab5:	74 05                	je     8049abc <submitr+0x348>
 8049ab7:	66 a5                	movsw  %ds:(%esi),%es:(%edi)
 8049ab9:	83 e8 02             	sub    $0x2,%eax
 8049abc:	89 c1                	mov    %eax,%ecx
 8049abe:	c1 e9 02             	shr    $0x2,%ecx
 8049ac1:	f3 a5                	rep movsl %ds:(%esi),%es:(%edi)
 8049ac3:	ba 00 00 00 00       	mov    $0x0,%edx
 8049ac8:	a8 02                	test   $0x2,%al
 8049aca:	74 0b                	je     8049ad7 <submitr+0x363>
 8049acc:	0f b7 0c 16          	movzwl (%esi,%edx,1),%ecx
 8049ad0:	66 89 0c 17          	mov    %cx,(%edi,%edx,1)
 8049ad4:	83 c2 02             	add    $0x2,%edx
 8049ad7:	a8 01                	test   $0x1,%al
 8049ad9:	74 07                	je     8049ae2 <submitr+0x36e>
 8049adb:	0f b6 04 16          	movzbl (%esi,%edx,1),%eax
 8049adf:	88 04 17             	mov    %al,(%edi,%edx,1)
 8049ae2:	8b 8d b0 5f ff ff    	mov    -0xa050(%ebp),%ecx
 8049ae8:	89 0c 24             	mov    %ecx,(%esp)
 8049aeb:	e8 60 ef ff ff       	call   8048a50 <close@plt>
 8049af0:	b8 ff ff ff ff       	mov    $0xffffffff,%eax
 8049af5:	e9 5f 02 00 00       	jmp    8049d59 <submitr+0x5e5>
 8049afa:	8b b5 b0 5f ff ff    	mov    -0xa050(%ebp),%esi
 8049b00:	89 b5 cc df ff ff    	mov    %esi,-0x2034(%ebp)
 8049b06:	c7 85 d0 df ff ff 00 	movl   $0x0,-0x2030(%ebp)
 8049b0d:	00 00 00 
 8049b10:	8d 85 cc df ff ff    	lea    -0x2034(%ebp),%eax
 8049b16:	8d 95 d8 df ff ff    	lea    -0x2028(%ebp),%edx
 8049b1c:	89 95 d4 df ff ff    	mov    %edx,-0x202c(%ebp)
 8049b22:	8d 95 cc bf ff ff    	lea    -0x4034(%ebp),%edx
 8049b28:	b9 00 20 00 00       	mov    $0x2000,%ecx
 8049b2d:	e8 33 fb ff ff       	call   8049665 <rio_readlineb>
 8049b32:	85 c0                	test   %eax,%eax
 8049b34:	7f 29                	jg     8049b5f <submitr+0x3eb>
 8049b36:	b8 0c b2 04 08       	mov    $0x804b20c,%eax
 8049b3b:	b9 36 00 00 00       	mov    $0x36,%ecx
 8049b40:	8b 7d 20             	mov    0x20(%ebp),%edi
 8049b43:	89 c6                	mov    %eax,%esi
 8049b45:	f3 a4                	rep movsb %ds:(%esi),%es:(%edi)
 8049b47:	8b 85 b0 5f ff ff    	mov    -0xa050(%ebp),%eax
 8049b4d:	89 04 24             	mov    %eax,(%esp)
 8049b50:	e8 fb ee ff ff       	call   8048a50 <close@plt>
 8049b55:	b8 ff ff ff ff       	mov    $0xffffffff,%eax
 8049b5a:	e9 fa 01 00 00       	jmp    8049d59 <submitr+0x5e5>
 8049b5f:	8d bd cc bf ff ff    	lea    -0x4034(%ebp),%edi
 8049b65:	8d 85 c8 5f ff ff    	lea    -0xa038(%ebp),%eax
 8049b6b:	89 44 24 10          	mov    %eax,0x10(%esp)
 8049b6f:	8d 85 c8 7f ff ff    	lea    -0x8038(%ebp),%eax
 8049b75:	89 44 24 0c          	mov    %eax,0xc(%esp)
 8049b79:	8d 85 cc 7f ff ff    	lea    -0x8034(%ebp),%eax
 8049b7f:	89 44 24 08          	mov    %eax,0x8(%esp)
 8049b83:	c7 44 24 04 b7 b0 04 	movl   $0x804b0b7,0x4(%esp)
 8049b8a:	08 
 8049b8b:	89 3c 24             	mov    %edi,(%esp)
 8049b8e:	e8 bd ed ff ff       	call   8048950 <__isoc99_sscanf@plt>
 8049b93:	8b 85 c8 7f ff ff    	mov    -0x8038(%ebp),%eax
 8049b99:	8d 9d cc bf ff ff    	lea    -0x4034(%ebp),%ebx
 8049b9f:	8d b5 cc df ff ff    	lea    -0x2034(%ebp),%esi
 8049ba5:	3d c8 00 00 00       	cmp    $0xc8,%eax
 8049baa:	0f 84 bd 00 00 00    	je     8049c6d <submitr+0x4f9>
 8049bb0:	8d 95 c8 5f ff ff    	lea    -0xa038(%ebp),%edx
 8049bb6:	89 54 24 0c          	mov    %edx,0xc(%esp)
 8049bba:	89 44 24 08          	mov    %eax,0x8(%esp)
 8049bbe:	c7 44 24 04 44 b2 04 	movl   $0x804b244,0x4(%esp)
 8049bc5:	08 
 8049bc6:	8b 4d 20             	mov    0x20(%ebp),%ecx
 8049bc9:	89 0c 24             	mov    %ecx,(%esp)
 8049bcc:	e8 ff ec ff ff       	call   80488d0 <sprintf@plt>
 8049bd1:	8b b5 b0 5f ff ff    	mov    -0xa050(%ebp),%esi
 8049bd7:	89 34 24             	mov    %esi,(%esp)
 8049bda:	e8 71 ee ff ff       	call   8048a50 <close@plt>
 8049bdf:	b8 ff ff ff ff       	mov    $0xffffffff,%eax
 8049be4:	e9 70 01 00 00       	jmp    8049d59 <submitr+0x5e5>
 8049be9:	b9 00 20 00 00       	mov    $0x2000,%ecx
 8049bee:	89 da                	mov    %ebx,%edx
 8049bf0:	89 f0                	mov    %esi,%eax
 8049bf2:	e8 6e fa ff ff       	call   8049665 <rio_readlineb>
 8049bf7:	85 c0                	test   %eax,%eax
 8049bf9:	7f 72                	jg     8049c6d <submitr+0x4f9>
 8049bfb:	8b 7d 20             	mov    0x20(%ebp),%edi
 8049bfe:	c7 07 45 72 72 6f    	movl   $0x6f727245,(%edi)
 8049c04:	c7 47 04 72 3a 20 43 	movl   $0x43203a72,0x4(%edi)
 8049c0b:	c7 47 08 6c 69 65 6e 	movl   $0x6e65696c,0x8(%edi)
 8049c12:	c7 47 0c 74 20 75 6e 	movl   $0x6e752074,0xc(%edi)
 8049c19:	c7 47 10 61 62 6c 65 	movl   $0x656c6261,0x10(%edi)
 8049c20:	c7 47 14 20 74 6f 20 	movl   $0x206f7420,0x14(%edi)
 8049c27:	c7 47 18 72 65 61 64 	movl   $0x64616572,0x18(%edi)
 8049c2e:	c7 47 1c 20 68 65 61 	movl   $0x61656820,0x1c(%edi)
 8049c35:	c7 47 20 64 65 72 73 	movl   $0x73726564,0x20(%edi)
 8049c3c:	c7 47 24 20 66 72 6f 	movl   $0x6f726620,0x24(%edi)
 8049c43:	c7 47 28 6d 20 73 65 	movl   $0x6573206d,0x28(%edi)
 8049c4a:	c7 47 2c 72 76 65 72 	movl   $0x72657672,0x2c(%edi)
 8049c51:	c6 47 30 00          	movb   $0x0,0x30(%edi)
 8049c55:	8b 85 b0 5f ff ff    	mov    -0xa050(%ebp),%eax
 8049c5b:	89 04 24             	mov    %eax,(%esp)
 8049c5e:	e8 ed ed ff ff       	call   8048a50 <close@plt>
 8049c63:	b8 ff ff ff ff       	mov    $0xffffffff,%eax
 8049c68:	e9 ec 00 00 00       	jmp    8049d59 <submitr+0x5e5>
 8049c6d:	b8 c8 b0 04 08       	mov    $0x804b0c8,%eax
 8049c72:	0f b6 13             	movzbl (%ebx),%edx
 8049c75:	3a 10                	cmp    (%eax),%dl
 8049c77:	0f 85 6c ff ff ff    	jne    8049be9 <submitr+0x475>
 8049c7d:	0f b6 53 01          	movzbl 0x1(%ebx),%edx
 8049c81:	3a 50 01             	cmp    0x1(%eax),%dl
 8049c84:	0f 85 5f ff ff ff    	jne    8049be9 <submitr+0x475>
 8049c8a:	0f b6 53 02          	movzbl 0x2(%ebx),%edx
 8049c8e:	3a 50 02             	cmp    0x2(%eax),%dl
 8049c91:	0f 85 52 ff ff ff    	jne    8049be9 <submitr+0x475>
 8049c97:	8d 95 cc bf ff ff    	lea    -0x4034(%ebp),%edx
 8049c9d:	8d 85 cc df ff ff    	lea    -0x2034(%ebp),%eax
 8049ca3:	b9 00 20 00 00       	mov    $0x2000,%ecx
 8049ca8:	e8 b8 f9 ff ff       	call   8049665 <rio_readlineb>
 8049cad:	85 c0                	test   %eax,%eax
 8049caf:	7f 61                	jg     8049d12 <submitr+0x59e>
 8049cb1:	8b 7d 20             	mov    0x20(%ebp),%edi
 8049cb4:	be 74 b2 04 08       	mov    $0x804b274,%esi
 8049cb9:	b8 38 00 00 00       	mov    $0x38,%eax
 8049cbe:	f7 c7 01 00 00 00    	test   $0x1,%edi
 8049cc4:	74 04                	je     8049cca <submitr+0x556>
 8049cc6:	a4                   	movsb  %ds:(%esi),%es:(%edi)
 8049cc7:	83 e8 01             	sub    $0x1,%eax
 8049cca:	f7 c7 02 00 00 00    	test   $0x2,%edi
 8049cd0:	74 05                	je     8049cd7 <submitr+0x563>
 8049cd2:	66 a5                	movsw  %ds:(%esi),%es:(%edi)
 8049cd4:	83 e8 02             	sub    $0x2,%eax
 8049cd7:	89 c1                	mov    %eax,%ecx
 8049cd9:	c1 e9 02             	shr    $0x2,%ecx
 8049cdc:	f3 a5                	rep movsl %ds:(%esi),%es:(%edi)
 8049cde:	ba 00 00 00 00       	mov    $0x0,%edx
 8049ce3:	a8 02                	test   $0x2,%al
 8049ce5:	74 0b                	je     8049cf2 <submitr+0x57e>
 8049ce7:	0f b7 0c 16          	movzwl (%esi,%edx,1),%ecx
 8049ceb:	66 89 0c 17          	mov    %cx,(%edi,%edx,1)
 8049cef:	83 c2 02             	add    $0x2,%edx
 8049cf2:	a8 01                	test   $0x1,%al
 8049cf4:	74 07                	je     8049cfd <submitr+0x589>
 8049cf6:	0f b6 04 16          	movzbl (%esi,%edx,1),%eax
 8049cfa:	88 04 17             	mov    %al,(%edi,%edx,1)
 8049cfd:	8b 8d b0 5f ff ff    	mov    -0xa050(%ebp),%ecx
 8049d03:	89 0c 24             	mov    %ecx,(%esp)
 8049d06:	e8 45 ed ff ff       	call   8048a50 <close@plt>
 8049d0b:	b8 ff ff ff ff       	mov    $0xffffffff,%eax
 8049d10:	eb 47                	jmp    8049d59 <submitr+0x5e5>
 8049d12:	89 7c 24 04          	mov    %edi,0x4(%esp)
 8049d16:	8b 75 20             	mov    0x20(%ebp),%esi
 8049d19:	89 34 24             	mov    %esi,(%esp)
 8049d1c:	e8 ef ec ff ff       	call   8048a10 <strcpy@plt>
 8049d21:	8b bd b0 5f ff ff    	mov    -0xa050(%ebp),%edi
 8049d27:	89 3c 24             	mov    %edi,(%esp)
 8049d2a:	e8 21 ed ff ff       	call   8048a50 <close@plt>
 8049d2f:	b8 cb b0 04 08       	mov    $0x804b0cb,%eax
 8049d34:	0f b6 0e             	movzbl (%esi),%ecx
 8049d37:	3a 08                	cmp    (%eax),%cl
 8049d39:	75 19                	jne    8049d54 <submitr+0x5e0>
 8049d3b:	0f b6 4e 01          	movzbl 0x1(%esi),%ecx
 8049d3f:	3a 48 01             	cmp    0x1(%eax),%cl
 8049d42:	75 10                	jne    8049d54 <submitr+0x5e0>
 8049d44:	0f b6 56 02          	movzbl 0x2(%esi),%edx
 8049d48:	3a 50 02             	cmp    0x2(%eax),%dl
 8049d4b:	75 07                	jne    8049d54 <submitr+0x5e0>
 8049d4d:	b8 00 00 00 00       	mov    $0x0,%eax
 8049d52:	eb 05                	jmp    8049d59 <submitr+0x5e5>
 8049d54:	b8 ff ff ff ff       	mov    $0xffffffff,%eax
 8049d59:	81 c4 6c a0 00 00    	add    $0xa06c,%esp
 8049d5f:	5b                   	pop    %ebx
 8049d60:	5e                   	pop    %esi
 8049d61:	5f                   	pop    %edi
 8049d62:	5d                   	pop    %ebp
 8049d63:	c3                   	ret    
 8049d64:	8d 85 cc 9f ff ff    	lea    -0x6034(%ebp),%eax
 8049d6a:	89 44 24 14          	mov    %eax,0x14(%esp)
 8049d6e:	8b 45 18             	mov    0x18(%ebp),%eax
 8049d71:	89 44 24 10          	mov    %eax,0x10(%esp)
 8049d75:	8b 4d 14             	mov    0x14(%ebp),%ecx
 8049d78:	89 4c 24 0c          	mov    %ecx,0xc(%esp)
 8049d7c:	8b 75 10             	mov    0x10(%ebp),%esi
 8049d7f:	89 74 24 08          	mov    %esi,0x8(%esp)
 8049d83:	c7 44 24 04 ac b2 04 	movl   $0x804b2ac,0x4(%esp)
 8049d8a:	08 
 8049d8b:	8d bd cc bf ff ff    	lea    -0x4034(%ebp),%edi
 8049d91:	89 3c 24             	mov    %edi,(%esp)
 8049d94:	e8 37 eb ff ff       	call   80488d0 <sprintf@plt>
 8049d99:	b8 00 00 00 00       	mov    $0x0,%eax
 8049d9e:	b9 ff ff ff ff       	mov    $0xffffffff,%ecx
 8049da3:	f2 ae                	repnz scas %es:(%edi),%al
 8049da5:	f7 d1                	not    %ecx
 8049da7:	89 cf                	mov    %ecx,%edi
 8049da9:	83 ef 01             	sub    $0x1,%edi
 8049dac:	0f 84 48 fd ff ff    	je     8049afa <submitr+0x386>
 8049db2:	89 fb                	mov    %edi,%ebx
 8049db4:	8d b5 cc bf ff ff    	lea    -0x4034(%ebp),%esi
 8049dba:	89 bd b4 5f ff ff    	mov    %edi,-0xa04c(%ebp)
 8049dc0:	8b bd b0 5f ff ff    	mov    -0xa050(%ebp),%edi
 8049dc6:	e9 9a fc ff ff       	jmp    8049a65 <submitr+0x2f1>

08049dcb <driver_post>:
 8049dcb:	55                   	push   %ebp
 8049dcc:	89 e5                	mov    %esp,%ebp
 8049dce:	53                   	push   %ebx
 8049dcf:	83 ec 24             	sub    $0x24,%esp
 8049dd2:	8b 45 08             	mov    0x8(%ebp),%eax
 8049dd5:	8b 55 0c             	mov    0xc(%ebp),%edx
 8049dd8:	8b 5d 14             	mov    0x14(%ebp),%ebx
 8049ddb:	83 7d 10 00          	cmpl   $0x0,0x10(%ebp)
 8049ddf:	74 20                	je     8049e01 <driver_post+0x36>
 8049de1:	89 54 24 04          	mov    %edx,0x4(%esp)
 8049de5:	c7 04 24 ce b0 04 08 	movl   $0x804b0ce,(%esp)
 8049dec:	e8 2f ec ff ff       	call   8048a20 <printf@plt>
 8049df1:	66 c7 03 4f 4b       	movw   $0x4b4f,(%ebx)
 8049df6:	c6 43 02 00          	movb   $0x0,0x2(%ebx)
 8049dfa:	b8 00 00 00 00       	mov    $0x0,%eax
 8049dff:	eb 49                	jmp    8049e4a <driver_post+0x7f>
 8049e01:	85 c0                	test   %eax,%eax
 8049e03:	74 37                	je     8049e3c <driver_post+0x71>
 8049e05:	80 38 00             	cmpb   $0x0,(%eax)
 8049e08:	74 32                	je     8049e3c <driver_post+0x71>
 8049e0a:	89 5c 24 18          	mov    %ebx,0x18(%esp)
 8049e0e:	89 54 24 14          	mov    %edx,0x14(%esp)
 8049e12:	c7 44 24 10 e5 b0 04 	movl   $0x804b0e5,0x10(%esp)
 8049e19:	08 
 8049e1a:	89 44 24 0c          	mov    %eax,0xc(%esp)
 8049e1e:	c7 44 24 08 ec b0 04 	movl   $0x804b0ec,0x8(%esp)
 8049e25:	08 
 8049e26:	c7 44 24 04 e5 0c 00 	movl   $0xce5,0x4(%esp)
 8049e2d:	00 
 8049e2e:	c7 04 24 61 a5 04 08 	movl   $0x804a561,(%esp)
 8049e35:	e8 3a f9 ff ff       	call   8049774 <submitr>
 8049e3a:	eb 0e                	jmp    8049e4a <driver_post+0x7f>
 8049e3c:	66 c7 03 4f 4b       	movw   $0x4b4f,(%ebx)
 8049e41:	c6 43 02 00          	movb   $0x0,0x2(%ebx)
 8049e45:	b8 00 00 00 00       	mov    $0x0,%eax
 8049e4a:	83 c4 24             	add    $0x24,%esp
 8049e4d:	5b                   	pop    %ebx
 8049e4e:	5d                   	pop    %ebp
 8049e4f:	c3                   	ret    

08049e50 <sigalrm_handler>:
 8049e50:	55                   	push   %ebp
 8049e51:	89 e5                	mov    %esp,%ebp
 8049e53:	83 ec 18             	sub    $0x18,%esp
 8049e56:	c7 44 24 08 05 00 00 	movl   $0x5,0x8(%esp)
 8049e5d:	00 
 8049e5e:	c7 44 24 04 f8 b2 04 	movl   $0x804b2f8,0x4(%esp)
 8049e65:	08 
 8049e66:	a1 c0 d1 04 08       	mov    0x804d1c0,%eax
 8049e6b:	89 04 24             	mov    %eax,(%esp)
 8049e6e:	e8 fd eb ff ff       	call   8048a70 <fprintf@plt>
 8049e73:	c7 04 24 01 00 00 00 	movl   $0x1,(%esp)
 8049e7a:	e8 61 ec ff ff       	call   8048ae0 <exit@plt>
 8049e7f:	90                   	nop

08049e80 <hash>:
 8049e80:	55                   	push   %ebp
 8049e81:	89 e5                	mov    %esp,%ebp
 8049e83:	8b 4d 08             	mov    0x8(%ebp),%ecx
 8049e86:	0f b6 11             	movzbl (%ecx),%edx
 8049e89:	b8 00 00 00 00       	mov    $0x0,%eax
 8049e8e:	84 d2                	test   %dl,%dl
 8049e90:	74 13                	je     8049ea5 <hash+0x25>
 8049e92:	6b c0 67             	imul   $0x67,%eax,%eax
 8049e95:	0f be d2             	movsbl %dl,%edx
 8049e98:	8d 04 02             	lea    (%edx,%eax,1),%eax
 8049e9b:	83 c1 01             	add    $0x1,%ecx
 8049e9e:	0f b6 11             	movzbl (%ecx),%edx
 8049ea1:	84 d2                	test   %dl,%dl
 8049ea3:	75 ed                	jne    8049e92 <hash+0x12>
 8049ea5:	5d                   	pop    %ebp
 8049ea6:	c3                   	ret    

08049ea7 <check>:
 8049ea7:	55                   	push   %ebp
 8049ea8:	89 e5                	mov    %esp,%ebp
 8049eaa:	8b 45 08             	mov    0x8(%ebp),%eax
 8049ead:	89 c2                	mov    %eax,%edx
 8049eaf:	c1 ea 1c             	shr    $0x1c,%edx
 8049eb2:	85 d2                	test   %edx,%edx
 8049eb4:	74 24                	je     8049eda <check+0x33>
 8049eb6:	3c 0a                	cmp    $0xa,%al
 8049eb8:	74 20                	je     8049eda <check+0x33>
 8049eba:	0f b6 d4             	movzbl %ah,%edx
 8049ebd:	83 fa 0a             	cmp    $0xa,%edx
 8049ec0:	74 18                	je     8049eda <check+0x33>
 8049ec2:	89 c2                	mov    %eax,%edx
 8049ec4:	c1 ea 10             	shr    $0x10,%edx
 8049ec7:	80 fa 0a             	cmp    $0xa,%dl
 8049eca:	74 0e                	je     8049eda <check+0x33>
 8049ecc:	c1 e8 18             	shr    $0x18,%eax
 8049ecf:	83 f8 0a             	cmp    $0xa,%eax
 8049ed2:	0f 95 c0             	setne  %al
 8049ed5:	0f b6 c0             	movzbl %al,%eax
 8049ed8:	eb 05                	jmp    8049edf <check+0x38>
 8049eda:	b8 00 00 00 00       	mov    $0x0,%eax
 8049edf:	5d                   	pop    %ebp
 8049ee0:	c3                   	ret    

08049ee1 <gencookie>:
 8049ee1:	55                   	push   %ebp
 8049ee2:	89 e5                	mov    %esp,%ebp
 8049ee4:	53                   	push   %ebx
 8049ee5:	83 ec 14             	sub    $0x14,%esp
 8049ee8:	8b 45 08             	mov    0x8(%ebp),%eax
 8049eeb:	89 04 24             	mov    %eax,(%esp)
 8049eee:	e8 8d ff ff ff       	call   8049e80 <hash>
 8049ef3:	89 04 24             	mov    %eax,(%esp)
 8049ef6:	e8 e5 e9 ff ff       	call   80488e0 <srand@plt>
 8049efb:	e8 a0 eb ff ff       	call   8048aa0 <rand@plt>
 8049f00:	89 c3                	mov    %eax,%ebx
 8049f02:	89 04 24             	mov    %eax,(%esp)
 8049f05:	e8 9d ff ff ff       	call   8049ea7 <check>
 8049f0a:	85 c0                	test   %eax,%eax
 8049f0c:	74 ed                	je     8049efb <gencookie+0x1a>
 8049f0e:	89 d8                	mov    %ebx,%eax
 8049f10:	83 c4 14             	add    $0x14,%esp
 8049f13:	5b                   	pop    %ebx
 8049f14:	5d                   	pop    %ebp
 8049f15:	c3                   	ret    
 8049f16:	90                   	nop
 8049f17:	90                   	nop
 8049f18:	90                   	nop
 8049f19:	90                   	nop
 8049f1a:	90                   	nop
 8049f1b:	90                   	nop
 8049f1c:	90                   	nop
 8049f1d:	90                   	nop
 8049f1e:	90                   	nop
 8049f1f:	90                   	nop

08049f20 <__libc_csu_fini>:
 8049f20:	55                   	push   %ebp
 8049f21:	89 e5                	mov    %esp,%ebp
 8049f23:	5d                   	pop    %ebp
 8049f24:	c3                   	ret    
 8049f25:	8d 74 26 00          	lea    0x0(%esi,%eiz,1),%esi
 8049f29:	8d bc 27 00 00 00 00 	lea    0x0(%edi,%eiz,1),%edi

08049f30 <__libc_csu_init>:
 8049f30:	55                   	push   %ebp
 8049f31:	89 e5                	mov    %esp,%ebp
 8049f33:	57                   	push   %edi
 8049f34:	56                   	push   %esi
 8049f35:	53                   	push   %ebx
 8049f36:	e8 4f 00 00 00       	call   8049f8a <__i686.get_pc_thunk.bx>
 8049f3b:	81 c3 ad 21 00 00    	add    $0x21ad,%ebx
 8049f41:	83 ec 1c             	sub    $0x1c,%esp
 8049f44:	e8 37 e9 ff ff       	call   8048880 <_init>
 8049f49:	8d bb 18 ff ff ff    	lea    -0xe8(%ebx),%edi
 8049f4f:	8d 83 18 ff ff ff    	lea    -0xe8(%ebx),%eax
 8049f55:	29 c7                	sub    %eax,%edi
 8049f57:	c1 ff 02             	sar    $0x2,%edi
 8049f5a:	85 ff                	test   %edi,%edi
 8049f5c:	74 24                	je     8049f82 <__libc_csu_init+0x52>
 8049f5e:	31 f6                	xor    %esi,%esi
 8049f60:	8b 45 10             	mov    0x10(%ebp),%eax
 8049f63:	89 44 24 08          	mov    %eax,0x8(%esp)
 8049f67:	8b 45 0c             	mov    0xc(%ebp),%eax
 8049f6a:	89 44 24 04          	mov    %eax,0x4(%esp)
 8049f6e:	8b 45 08             	mov    0x8(%ebp),%eax
 8049f71:	89 04 24             	mov    %eax,(%esp)
 8049f74:	ff 94 b3 18 ff ff ff 	call   *-0xe8(%ebx,%esi,4)
 8049f7b:	83 c6 01             	add    $0x1,%esi
 8049f7e:	39 fe                	cmp    %edi,%esi
 8049f80:	72 de                	jb     8049f60 <__libc_csu_init+0x30>
 8049f82:	83 c4 1c             	add    $0x1c,%esp
 8049f85:	5b                   	pop    %ebx
 8049f86:	5e                   	pop    %esi
 8049f87:	5f                   	pop    %edi
 8049f88:	5d                   	pop    %ebp
 8049f89:	c3                   	ret    

08049f8a <__i686.get_pc_thunk.bx>:
 8049f8a:	8b 1c 24             	mov    (%esp),%ebx
 8049f8d:	c3                   	ret    
 8049f8e:	90                   	nop
 8049f8f:	90                   	nop

08049f90 <__do_global_ctors_aux>:
 8049f90:	55                   	push   %ebp
 8049f91:	89 e5                	mov    %esp,%ebp
 8049f93:	53                   	push   %ebx
 8049f94:	83 ec 04             	sub    $0x4,%esp
 8049f97:	a1 00 c0 04 08       	mov    0x804c000,%eax
 8049f9c:	83 f8 ff             	cmp    $0xffffffff,%eax
 8049f9f:	74 13                	je     8049fb4 <__do_global_ctors_aux+0x24>
 8049fa1:	bb 00 c0 04 08       	mov    $0x804c000,%ebx
 8049fa6:	66 90                	xchg   %ax,%ax
 8049fa8:	83 eb 04             	sub    $0x4,%ebx
 8049fab:	ff d0                	call   *%eax
 8049fad:	8b 03                	mov    (%ebx),%eax
 8049faf:	83 f8 ff             	cmp    $0xffffffff,%eax
 8049fb2:	75 f4                	jne    8049fa8 <__do_global_ctors_aux+0x18>
 8049fb4:	83 c4 04             	add    $0x4,%esp
 8049fb7:	5b                   	pop    %ebx
 8049fb8:	5d                   	pop    %ebp
 8049fb9:	c3                   	ret    
 8049fba:	90                   	nop
 8049fbb:	90                   	nop

Disassembly of section .fini:

08049fbc <_fini>:
 8049fbc:	55                   	push   %ebp
 8049fbd:	89 e5                	mov    %esp,%ebp
 8049fbf:	53                   	push   %ebx
 8049fc0:	83 ec 04             	sub    $0x4,%esp
 8049fc3:	e8 00 00 00 00       	call   8049fc8 <_fini+0xc>
 8049fc8:	5b                   	pop    %ebx
 8049fc9:	81 c3 20 21 00 00    	add    $0x2120,%ebx
 8049fcf:	e8 4c eb ff ff       	call   8048b20 <__do_global_dtors_aux>
 8049fd4:	59                   	pop    %ecx
 8049fd5:	5b                   	pop    %ebx
 8049fd6:	c9                   	leave  
 8049fd7:	c3                   	ret    
